
shell.elf:     file format elf32-msp430


Disassembly of section .text:

0000c000 <__watchdog_support>:
    c000:	55 42 20 01 	mov.b	&0x0120,r5	
    c004:	35 d0 08 5a 	bis	#23048,	r5	;#0x5a08
    c008:	82 45 18 02 	mov	r5,	&0x0218	

0000c00c <__init_stack>:
    c00c:	31 40 00 04 	mov	#1024,	r1	;#0x0400

0000c010 <__do_copy_data>:
    c010:	3f 40 14 00 	mov	#20,	r15	;#0x0014
    c014:	0f 93       	tst	r15		
    c016:	08 24       	jz	$+18     	;abs 0xc028
    c018:	92 42 18 02 	mov	&0x0218,&0x0120	
    c01c:	20 01 
    c01e:	2f 83       	decd	r15		
    c020:	9f 4f 80 cb 	mov	-13440(r15),512(r15);0xcb80(r15), 0x0200(r15)
    c024:	00 02 
    c026:	f8 23       	jnz	$-14     	;abs 0xc018

0000c028 <__do_clear_bss>:
    c028:	3f 40 04 00 	mov	#4,	r15	;#0x0004
    c02c:	0f 93       	tst	r15		
    c02e:	07 24       	jz	$+16     	;abs 0xc03e
    c030:	92 42 18 02 	mov	&0x0218,&0x0120	
    c034:	20 01 
    c036:	1f 83       	dec	r15		
    c038:	cf 43 14 02 	mov.b	#0,	532(r15);r3 As==00, 0x0214(r15)
    c03c:	f9 23       	jnz	$-12     	;abs 0xc030

0000c03e <main>:
    c03e:	31 50 a2 ff 	add	#-94,	r1	;#0xffa2
    c042:	b2 40 80 5a 	mov	#23168,	&0x0120	;#0x5a80
    c046:	20 01 
    c048:	5f 42 ff 10 	mov.b	&0x10ff,r15	
    c04c:	c2 4f 57 00 	mov.b	r15,	&0x0057	
    c050:	5f 42 fe 10 	mov.b	&0x10fe,r15	
    c054:	c2 4f 56 00 	mov.b	r15,	&0x0056	
    c058:	f2 40 f0 ff 	mov.b	#-16,	&0x0022	;#0xfff0
    c05c:	22 00 
    c05e:	f2 40 f0 ff 	mov.b	#-16,	&0x0021	;#0xfff0
    c062:	21 00 
    c064:	5f 42 2e 00 	mov.b	&0x002e,r15	
    c068:	7f f0 3f 00 	and.b	#63,	r15	;#0x003f
    c06c:	c2 4f 2e 00 	mov.b	r15,	&0x002e	
    c070:	f2 40 80 ff 	mov.b	#-128,	&0x002a	;#0xff80
    c074:	2a 00 
    c076:	f2 40 80 ff 	mov.b	#-128,	&0x0029	;#0xff80
    c07a:	29 00 
    c07c:	f2 42 27 00 	mov.b	#8,	&0x0027	;r2 As==11
    c080:	5f 42 21 00 	mov.b	&0x0021,r15	
    c084:	7f d2       	bis.b	#8,	r15	;r2 As==11
    c086:	c2 4f 21 00 	mov.b	r15,	&0x0021	
    c08a:	5f 42 25 00 	mov.b	&0x0025,r15	
    c08e:	7f d2       	bis.b	#8,	r15	;r2 As==11
    c090:	c2 4f 25 00 	mov.b	r15,	&0x0025	
    c094:	5f 42 24 00 	mov.b	&0x0024,r15	
    c098:	7f d2       	bis.b	#8,	r15	;r2 As==11
    c09a:	c2 4f 24 00 	mov.b	r15,	&0x0024	
    c09e:	5f 42 23 00 	mov.b	&0x0023,r15	
    c0a2:	7f f0 f7 ff 	and.b	#-9,	r15	;#0xfff7
    c0a6:	c2 4f 23 00 	mov.b	r15,	&0x0023	
    c0aa:	b2 40 d0 02 	mov	#720,	&0x0160	;#0x02d0
    c0ae:	60 01 
    c0b0:	b2 40 10 00 	mov	#16,	&0x0162	;#0x0010
    c0b4:	62 01 
    c0b6:	b2 40 f4 01 	mov	#500,	&0x0172	;#0x01f4
    c0ba:	72 01 
    c0bc:	3f 40 80 25 	mov	#9600,	r15	;#0x2580
    c0c0:	b0 12 34 c9 	call	#0xc934	
    c0c4:	32 d2       	eint			
    c0c6:	81 43 00 00 	mov	#0,	0(r1)	;r3 As==00, 0x0000(r1)
    c0ca:	0f 41       	mov	r1,	r15	
    c0cc:	3f 50 03 00 	add	#3,	r15	;#0x0003
    c0d0:	3e 40 5a 00 	mov	#90,	r14	;#0x005a
    c0d4:	0d 4e       	mov	r14,	r13	
    c0d6:	0e 43       	clr	r14		
    c0d8:	b0 12 c8 c9 	call	#0xc9c8	
    c0dc:	3f 40 d8 ca 	mov	#-13608,r15	;#0xcad8
    c0e0:	b0 12 0c c6 	call	#0xc60c	
    c0e4:	b0 12 04 c8 	call	#0xc804	
    c0e8:	c1 4f 02 00 	mov.b	r15,	2(r1)	;0x0002(r1)
    c0ec:	2a 3c       	jmp	$+86     	;abs 0xc142
    c0ee:	f1 92 02 00 	cmp.b	#8,	2(r1)	;r2 As==11, 0x0002(r1)
    c0f2:	16 20       	jnz	$+46     	;abs 0xc120
    c0f4:	81 93 00 00 	tst	0(r1)		;0x0000(r1)
    c0f8:	20 24       	jz	$+66     	;abs 0xc13a
    c0fa:	b1 53 00 00 	add	#-1,	0(r1)	;r3 As==11, 0x0000(r1)
    c0fe:	0f 41       	mov	r1,	r15	
    c100:	3f 50 03 00 	add	#3,	r15	;#0x0003
    c104:	2f 51       	add	@r1,	r15	
    c106:	cf 43 00 00 	mov.b	#0,	0(r15)	;r3 As==00, 0x0000(r15)
    c10a:	7f 42       	mov.b	#8,	r15	;r2 As==11
    c10c:	b0 12 fe c7 	call	#0xc7fe	
    c110:	7f 40 20 00 	mov.b	#32,	r15	;#0x0020
    c114:	b0 12 fe c7 	call	#0xc7fe	
    c118:	7f 42       	mov.b	#8,	r15	;r2 As==11
    c11a:	b0 12 fe c7 	call	#0xc7fe	
    c11e:	0d 3c       	jmp	$+28     	;abs 0xc13a
    c120:	0f 41       	mov	r1,	r15	
    c122:	3f 50 03 00 	add	#3,	r15	;#0x0003
    c126:	2f 51       	add	@r1,	r15	
    c128:	df 41 02 00 	mov.b	2(r1),	0(r15)	;0x0002(r1), 0x0000(r15)
    c12c:	00 00 
    c12e:	91 53 00 00 	inc	0(r1)		;0x0000(r1)
    c132:	5f 41 02 00 	mov.b	2(r1),	r15	;0x0002(r1)
    c136:	b0 12 fe c7 	call	#0xc7fe	
    c13a:	b0 12 04 c8 	call	#0xc804	
    c13e:	c1 4f 02 00 	mov.b	r15,	2(r1)	;0x0002(r1)
    c142:	f1 90 0d 00 	cmp.b	#13,	2(r1)	;#0x000d, 0x0002(r1)
    c146:	02 00 
    c148:	d2 23       	jnz	$-90     	;abs 0xc0ee
    c14a:	3f 40 db ca 	mov	#-13605,r15	;#0xcadb
    c14e:	b0 12 0c c6 	call	#0xc60c	
    c152:	0f 41       	mov	r1,	r15	
    c154:	3f 50 03 00 	add	#3,	r15	;#0x0003
    c158:	b0 12 5a c2 	call	#0xc25a	
    c15c:	3f 90 f1 ff 	cmp	#-15,	r15	;#0xfff1
    c160:	0c 24       	jz	$+26     	;abs 0xc17a
    c162:	3f 90 f2 ff 	cmp	#-14,	r15	;#0xfff2
    c166:	04 24       	jz	$+10     	;abs 0xc170
    c168:	3f 90 f0 ff 	cmp	#-16,	r15	;#0xfff0
    c16c:	0b 24       	jz	$+24     	;abs 0xc184
    c16e:	0f 3c       	jmp	$+32     	;abs 0xc18e
    c170:	3f 40 df ca 	mov	#-13601,r15	;#0xcadf
    c174:	b0 12 0c c6 	call	#0xc60c	
    c178:	0b 3c       	jmp	$+24     	;abs 0xc190
    c17a:	3f 40 fe ca 	mov	#-13570,r15	;#0xcafe
    c17e:	b0 12 0c c6 	call	#0xc60c	
    c182:	06 3c       	jmp	$+14     	;abs 0xc190
    c184:	3f 40 23 cb 	mov	#-13533,r15	;#0xcb23
    c188:	b0 12 0c c6 	call	#0xc60c	
    c18c:	01 3c       	jmp	$+4      	;abs 0xc190
    c18e:	03 43       	nop			
    c190:	5f 42 2a 00 	mov.b	&0x002a,r15	
    c194:	f2 43 2a 00 	mov.b	#-1,	&0x002a	;r3 As==11
    c198:	3f 40 46 cb 	mov	#-13498,r15	;#0xcb46
    c19c:	b0 12 0c c6 	call	#0xc60c	
    c1a0:	92 3f       	jmp	$-218    	;abs 0xc0c6

0000c1a2 <__stop_progExec__>:
    c1a2:	32 d0 f0 00 	bis	#240,	r2	;#0x00f0
    c1a6:	fd 3f       	jmp	$-4      	;abs 0xc1a2

0000c1a8 <__ctors_end>:
    c1a8:	30 40 32 ca 	br	#0xca32	

0000c1ac <shell_cmd_help>:
    c1ac:	21 82       	sub	#4,	r1	;r2 As==10
    c1ae:	81 4f 02 00 	mov	r15,	2(r1)	;0x0002(r1)
    c1b2:	81 43 00 00 	mov	#0,	0(r1)	;r3 As==00, 0x0000(r1)
    c1b6:	1a 3c       	jmp	$+54     	;abs 0xc1ec
    c1b8:	2e 41       	mov	@r1,	r14	
    c1ba:	0f 4e       	mov	r14,	r15	
    c1bc:	0f 5f       	rla	r15		
    c1be:	0f 5e       	add	r14,	r15	
    c1c0:	0f 5f       	rla	r15		
    c1c2:	3f 50 04 02 	add	#516,	r15	;#0x0204
    c1c6:	2d 4f       	mov	@r15,	r13	
    c1c8:	2e 41       	mov	@r1,	r14	
    c1ca:	0f 4e       	mov	r14,	r15	
    c1cc:	0f 5f       	rla	r15		
    c1ce:	0f 5e       	add	r14,	r15	
    c1d0:	0f 5f       	rla	r15		
    c1d2:	3f 50 02 02 	add	#514,	r15	;#0x0202
    c1d6:	2f 4f       	mov	@r15,	r15	
    c1d8:	0d 12       	push	r13		
    c1da:	0f 12       	push	r15		
    c1dc:	30 12 b9 ca 	push	#-13639	;#0xcab9
    c1e0:	b0 12 d4 c6 	call	#0xc6d4	
    c1e4:	31 50 06 00 	add	#6,	r1	;#0x0006
    c1e8:	91 53 00 00 	inc	0(r1)		;0x0000(r1)
    c1ec:	5f 42 00 02 	mov.b	&0x0200,r15	
    c1f0:	4f 4f       	mov.b	r15,	r15	
    c1f2:	81 9f 00 00 	cmp	r15,	0(r1)	;0x0000(r1)
    c1f6:	e0 3b       	jl	$-62     	;abs 0xc1b8
    c1f8:	0f 43       	clr	r15		
    c1fa:	21 52       	add	#4,	r1	;r2 As==10
    c1fc:	30 41       	ret			

0000c1fe <shell_cmd_argt>:
    c1fe:	21 82       	sub	#4,	r1	;r2 As==10
    c200:	81 4f 02 00 	mov	r15,	2(r1)	;0x0002(r1)
    c204:	3f 40 c2 ca 	mov	#-13630,r15	;#0xcac2
    c208:	b0 12 0c c6 	call	#0xc60c	
    c20c:	81 43 00 00 	mov	#0,	0(r1)	;r3 As==00, 0x0000(r1)
    c210:	10 3c       	jmp	$+34     	;abs 0xc232
    c212:	2f 41       	mov	@r1,	r15	
    c214:	0f 5f       	rla	r15		
    c216:	0f 5f       	rla	r15		
    c218:	0f 5f       	rla	r15		
    c21a:	0f 5f       	rla	r15		
    c21c:	2f 53       	incd	r15		
    c21e:	1f 51 02 00 	add	2(r1),	r15	;0x0002(r1)
    c222:	0f 12       	push	r15		
    c224:	30 12 d0 ca 	push	#-13616	;#0xcad0
    c228:	b0 12 d4 c6 	call	#0xc6d4	
    c22c:	21 52       	add	#4,	r1	;r2 As==10
    c22e:	91 53 00 00 	inc	0(r1)		;0x0000(r1)
    c232:	1f 41 02 00 	mov	2(r1),	r15	;0x0002(r1)
    c236:	6f 4f       	mov.b	@r15,	r15	
    c238:	4f 4f       	mov.b	r15,	r15	
    c23a:	81 9f 00 00 	cmp	r15,	0(r1)	;0x0000(r1)
    c23e:	e9 3b       	jl	$-44     	;abs 0xc212
    c240:	0f 43       	clr	r15		
    c242:	21 52       	add	#4,	r1	;r2 As==10
    c244:	30 41       	ret			

0000c246 <shell_cmd_hexd>:
    c246:	21 83       	decd	r1		
    c248:	81 4f 00 00 	mov	r15,	0(r1)	;0x0000(r1)
    c24c:	2f 41       	mov	@r1,	r15	
    c24e:	2f 53       	incd	r15		
    c250:	82 4f 16 02 	mov	r15,	&0x0216	
    c254:	0f 43       	clr	r15		
    c256:	21 53       	incd	r1		
    c258:	30 41       	ret			

0000c25a <shell_process>:
    c25a:	21 83       	decd	r1		
    c25c:	81 4f 00 00 	mov	r15,	0(r1)	;0x0000(r1)
    c260:	2e 41       	mov	@r1,	r14	
    c262:	3f 40 00 02 	mov	#512,	r15	;#0x0200
    c266:	b0 12 04 c5 	call	#0xc504	
    c26a:	21 53       	incd	r1		
    c26c:	30 41       	ret			

0000c26e <Timer0_A0_ISR>:
    c26e:	0f 12       	push	r15		
    c270:	1f 42 14 02 	mov	&0x0214,r15	
    c274:	1f 93       	cmp	#1,	r15	;r3 As==01
    c276:	2f 24       	jz	$+96     	;abs 0xc2d6
    c278:	2f 93       	cmp	#2,	r15	;r3 As==10
    c27a:	03 34       	jge	$+8      	;abs 0xc282
    c27c:	0f 93       	tst	r15		
    c27e:	07 24       	jz	$+16     	;abs 0xc28e
    c280:	90 3c       	jmp	$+290    	;abs 0xc3a2
    c282:	2f 93       	cmp	#2,	r15	;r3 As==10
    c284:	47 24       	jz	$+144    	;abs 0xc314
    c286:	3f 90 03 00 	cmp	#3,	r15	;#0x0003
    c28a:	6a 24       	jz	$+214    	;abs 0xc360
    c28c:	8a 3c       	jmp	$+278    	;abs 0xc3a2
    c28e:	f2 42 21 00 	mov.b	#8,	&0x0021	;r2 As==11
    c292:	5f 42 21 00 	mov.b	&0x0021,r15	
    c296:	7f d0 10 00 	bis.b	#16,	r15	;#0x0010
    c29a:	c2 4f 21 00 	mov.b	r15,	&0x0021	
    c29e:	1f 42 16 02 	mov	&0x0216,r15	
    c2a2:	6f 4f       	mov.b	@r15,	r15	
    c2a4:	8f 11       	sxt	r15		
    c2a6:	3f f0 f0 00 	and	#240,	r15	;#0x00f0
    c2aa:	0f 93       	tst	r15		
    c2ac:	03 20       	jnz	$+8      	;abs 0xc2b4
    c2ae:	f2 43 29 00 	mov.b	#-1,	&0x0029	;r3 As==11
    c2b2:	77 3c       	jmp	$+240    	;abs 0xc3a2
    c2b4:	1f 42 16 02 	mov	&0x0216,r15	
    c2b8:	6f 4f       	mov.b	@r15,	r15	
    c2ba:	4f 4f       	mov.b	r15,	r15	
    c2bc:	8f 11       	sxt	r15		
    c2be:	4f 4f       	mov.b	r15,	r15	
    c2c0:	4f 11       	rra.b	r15		
    c2c2:	4f 11       	rra.b	r15		
    c2c4:	4f 11       	rra.b	r15		
    c2c6:	4f 11       	rra.b	r15		
    c2c8:	8f 11       	sxt	r15		
    c2ca:	5f 4f 34 ca 	mov.b	-13772(r15),r15	;0xca34(r15)
    c2ce:	7f e3       	xor.b	#-1,	r15	;r3 As==11
    c2d0:	c2 4f 29 00 	mov.b	r15,	&0x0029	
    c2d4:	66 3c       	jmp	$+206    	;abs 0xc3a2
    c2d6:	f2 42 21 00 	mov.b	#8,	&0x0021	;r2 As==11
    c2da:	5f 42 21 00 	mov.b	&0x0021,r15	
    c2de:	7f d0 20 00 	bis.b	#32,	r15	;#0x0020
    c2e2:	c2 4f 21 00 	mov.b	r15,	&0x0021	
    c2e6:	1f 42 16 02 	mov	&0x0216,r15	
    c2ea:	6f 4f       	mov.b	@r15,	r15	
    c2ec:	8f 11       	sxt	r15		
    c2ee:	3f f0 ff 00 	and	#255,	r15	;#0x00ff
    c2f2:	0f 93       	tst	r15		
    c2f4:	03 20       	jnz	$+8      	;abs 0xc2fc
    c2f6:	f2 43 29 00 	mov.b	#-1,	&0x0029	;r3 As==11
    c2fa:	53 3c       	jmp	$+168    	;abs 0xc3a2
    c2fc:	1f 42 16 02 	mov	&0x0216,r15	
    c300:	6f 4f       	mov.b	@r15,	r15	
    c302:	8f 11       	sxt	r15		
    c304:	3f f0 0f 00 	and	#15,	r15	;#0x000f
    c308:	5f 4f 34 ca 	mov.b	-13772(r15),r15	;0xca34(r15)
    c30c:	7f e3       	xor.b	#-1,	r15	;r3 As==11
    c30e:	c2 4f 29 00 	mov.b	r15,	&0x0029	
    c312:	47 3c       	jmp	$+144    	;abs 0xc3a2
    c314:	f2 42 21 00 	mov.b	#8,	&0x0021	;r2 As==11
    c318:	5f 42 21 00 	mov.b	&0x0021,r15	
    c31c:	7f d0 40 00 	bis.b	#64,	r15	;#0x0040
    c320:	c2 4f 21 00 	mov.b	r15,	&0x0021	
    c324:	1f 42 16 02 	mov	&0x0216,r15	
    c328:	1f 53       	inc	r15		
    c32a:	6f 4f       	mov.b	@r15,	r15	
    c32c:	8f 11       	sxt	r15		
    c32e:	3f f0 f0 00 	and	#240,	r15	;#0x00f0
    c332:	0f 93       	tst	r15		
    c334:	03 20       	jnz	$+8      	;abs 0xc33c
    c336:	f2 43 29 00 	mov.b	#-1,	&0x0029	;r3 As==11
    c33a:	33 3c       	jmp	$+104    	;abs 0xc3a2
    c33c:	1f 42 16 02 	mov	&0x0216,r15	
    c340:	1f 53       	inc	r15		
    c342:	6f 4f       	mov.b	@r15,	r15	
    c344:	4f 4f       	mov.b	r15,	r15	
    c346:	8f 11       	sxt	r15		
    c348:	4f 4f       	mov.b	r15,	r15	
    c34a:	4f 11       	rra.b	r15		
    c34c:	4f 11       	rra.b	r15		
    c34e:	4f 11       	rra.b	r15		
    c350:	4f 11       	rra.b	r15		
    c352:	8f 11       	sxt	r15		
    c354:	5f 4f 34 ca 	mov.b	-13772(r15),r15	;0xca34(r15)
    c358:	7f e3       	xor.b	#-1,	r15	;r3 As==11
    c35a:	c2 4f 29 00 	mov.b	r15,	&0x0029	
    c35e:	21 3c       	jmp	$+68     	;abs 0xc3a2
    c360:	f2 42 21 00 	mov.b	#8,	&0x0021	;r2 As==11
    c364:	5f 42 21 00 	mov.b	&0x0021,r15	
    c368:	7f d0 80 ff 	bis.b	#-128,	r15	;#0xff80
    c36c:	c2 4f 21 00 	mov.b	r15,	&0x0021	
    c370:	1f 42 16 02 	mov	&0x0216,r15	
    c374:	1f 53       	inc	r15		
    c376:	6f 4f       	mov.b	@r15,	r15	
    c378:	8f 11       	sxt	r15		
    c37a:	3f f0 ff 00 	and	#255,	r15	;#0x00ff
    c37e:	0f 93       	tst	r15		
    c380:	03 20       	jnz	$+8      	;abs 0xc388
    c382:	f2 43 29 00 	mov.b	#-1,	&0x0029	;r3 As==11
    c386:	0c 3c       	jmp	$+26     	;abs 0xc3a0
    c388:	1f 42 16 02 	mov	&0x0216,r15	
    c38c:	1f 53       	inc	r15		
    c38e:	6f 4f       	mov.b	@r15,	r15	
    c390:	8f 11       	sxt	r15		
    c392:	3f f0 0f 00 	and	#15,	r15	;#0x000f
    c396:	5f 4f 34 ca 	mov.b	-13772(r15),r15	;0xca34(r15)
    c39a:	7f e3       	xor.b	#-1,	r15	;r3 As==11
    c39c:	c2 4f 29 00 	mov.b	r15,	&0x0029	
    c3a0:	03 43       	nop			
    c3a2:	1f 42 14 02 	mov	&0x0214,r15	
    c3a6:	1f 53       	inc	r15		
    c3a8:	82 4f 14 02 	mov	r15,	&0x0214	
    c3ac:	1f 42 14 02 	mov	&0x0214,r15	
    c3b0:	3f f0 03 80 	and	#-32765,r15	;#0x8003
    c3b4:	0f 93       	tst	r15		
    c3b6:	04 34       	jge	$+10     	;abs 0xc3c0
    c3b8:	3f 53       	add	#-1,	r15	;r3 As==11
    c3ba:	3f d0 fc ff 	bis	#-4,	r15	;#0xfffc
    c3be:	1f 53       	inc	r15		
    c3c0:	82 4f 14 02 	mov	r15,	&0x0214	
    c3c4:	3f 41       	pop	r15		
    c3c6:	00 13       	reti			

0000c3c8 <modeSwitch>:
    c3c8:	82 43 60 01 	mov	#0,	&0x0160	;r3 As==00
    c3cc:	f2 43 29 00 	mov.b	#-1,	&0x0029	;r3 As==11
    c3d0:	00 13       	reti			

0000c3d2 <shell_str_len>:
    c3d2:	0e 4f       	mov	r15,	r14	
    c3d4:	0f 43       	clr	r15		
    c3d6:	01 3c       	jmp	$+4      	;abs 0xc3da
    c3d8:	0f 4c       	mov	r12,	r15	
    c3da:	0c 4f       	mov	r15,	r12	
    c3dc:	1c 53       	inc	r12		
    c3de:	0d 4e       	mov	r14,	r13	
    c3e0:	0d 5f       	add	r15,	r13	
    c3e2:	cd 93 00 00 	tst.b	0(r13)		;0x0000(r13)
    c3e6:	f8 23       	jnz	$-14     	;abs 0xc3d8
    c3e8:	30 41       	ret			

0000c3ea <shell_str_cmp>:
    c3ea:	0b 12       	push	r11		
    c3ec:	0a 12       	push	r10		
    c3ee:	09 12       	push	r9		
    c3f0:	0c 9d       	cmp	r13,	r12	
    c3f2:	14 38       	jl	$+42     	;abs 0xc41c
    c3f4:	0b 43       	clr	r11		
    c3f6:	08 3c       	jmp	$+18     	;abs 0xc408
    c3f8:	09 4f       	mov	r15,	r9	
    c3fa:	09 5b       	add	r11,	r9	
    c3fc:	0a 4e       	mov	r14,	r10	
    c3fe:	0a 5b       	add	r11,	r10	
    c400:	e9 9a 00 00 	cmp.b	@r10,	0(r9)	;0x0000(r9)
    c404:	0f 20       	jnz	$+32     	;abs 0xc424
    c406:	1b 53       	inc	r11		
    c408:	0b 9d       	cmp	r13,	r11	
    c40a:	f6 3b       	jl	$-18     	;abs 0xc3f8
    c40c:	0d 9c       	cmp	r12,	r13	
    c40e:	08 34       	jge	$+18     	;abs 0xc420
    c410:	0b 5e       	add	r14,	r11	
    c412:	fb 90 20 00 	cmp.b	#32,	0(r11)	;#0x0020, 0x0000(r11)
    c416:	00 00 
    c418:	05 20       	jnz	$+12     	;abs 0xc424
    c41a:	02 3c       	jmp	$+6      	;abs 0xc420
    c41c:	1f 43       	mov	#1,	r15	;r3 As==01
    c41e:	03 3c       	jmp	$+8      	;abs 0xc426
    c420:	0f 43       	clr	r15		
    c422:	01 3c       	jmp	$+4      	;abs 0xc426
    c424:	2f 43       	mov	#2,	r15	;r3 As==10
    c426:	39 41       	pop	r9		
    c428:	3a 41       	pop	r10		
    c42a:	3b 41       	pop	r11		
    c42c:	30 41       	ret			

0000c42e <shell_parse_int>:
    c42e:	0d 43       	clr	r13		
    c430:	11 3c       	jmp	$+36     	;abs 0xc454
    c432:	1f 53       	inc	r15		
    c434:	4e 4c       	mov.b	r12,	r14	
    c436:	7e 50 d0 ff 	add.b	#-48,	r14	;#0xffd0
    c43a:	7e 90 0a 00 	cmp.b	#10,	r14	;#0x000a
    c43e:	0d 2c       	jc	$+28     	;abs 0xc45a
    c440:	0d 5d       	rla	r13		
    c442:	0e 4d       	mov	r13,	r14	
    c444:	0e 5e       	rla	r14		
    c446:	0e 5e       	rla	r14		
    c448:	0d 5e       	add	r14,	r13	
    c44a:	4e 4c       	mov.b	r12,	r14	
    c44c:	8e 11       	sxt	r14		
    c44e:	3e 50 d0 ff 	add	#-48,	r14	;#0xffd0
    c452:	0d 5e       	add	r14,	r13	
    c454:	6c 4f       	mov.b	@r15,	r12	
    c456:	4c 93       	tst.b	r12		
    c458:	ec 23       	jnz	$-38     	;abs 0xc432
    c45a:	0f 4d       	mov	r13,	r15	
    c45c:	30 41       	ret			

0000c45e <shell_arg_parser>:
    c45e:	0b 12       	push	r11		
    c460:	0a 12       	push	r10		
    c462:	09 12       	push	r9		
    c464:	08 12       	push	r8		
    c466:	07 12       	push	r7		
    c468:	06 12       	push	r6		
    c46a:	05 12       	push	r5		
    c46c:	0a 43       	clr	r10		
    c46e:	0c 43       	clr	r12		
    c470:	0b 43       	clr	r11		
    c472:	08 4e       	mov	r14,	r8	
    c474:	38 53       	add	#-1,	r8	;r3 As==11
    c476:	35 3c       	jmp	$+108    	;abs 0xc4e2
    c478:	3a 90 06 00 	cmp	#6,	r10	;#0x0006
    c47c:	38 34       	jge	$+114    	;abs 0xc4ee
    c47e:	09 4f       	mov	r15,	r9	
    c480:	09 5b       	add	r11,	r9	
    c482:	f9 90 20 00 	cmp.b	#32,	0(r9)	;#0x0020, 0x0000(r9)
    c486:	00 00 
    c488:	02 24       	jz	$+6      	;abs 0xc48e
    c48a:	0b 98       	cmp	r8,	r11	
    c48c:	29 20       	jnz	$+84     	;abs 0xc4e0
    c48e:	0b 98       	cmp	r8,	r11	
    c490:	01 20       	jnz	$+4      	;abs 0xc494
    c492:	0b 4e       	mov	r14,	r11	
    c494:	0c 93       	tst	r12		
    c496:	23 24       	jz	$+72     	;abs 0xc4de
    c498:	07 4b       	mov	r11,	r7	
    c49a:	07 8c       	sub	r12,	r7	
    c49c:	37 90 10 00 	cmp	#16,	r7	;#0x0010
    c4a0:	28 34       	jge	$+82     	;abs 0xc4f2
    c4a2:	09 43       	clr	r9		
    c4a4:	37 53       	add	#-1,	r7	;r3 As==11
    c4a6:	05 4f       	mov	r15,	r5	
    c4a8:	05 5c       	add	r12,	r5	
    c4aa:	0d 3c       	jmp	$+28     	;abs 0xc4c6
    c4ac:	06 45       	mov	r5,	r6	
    c4ae:	06 59       	add	r9,	r6	
    c4b0:	0c 4a       	mov	r10,	r12	
    c4b2:	0c 5c       	rla	r12		
    c4b4:	0c 5c       	rla	r12		
    c4b6:	0c 5c       	rla	r12		
    c4b8:	0c 5c       	rla	r12		
    c4ba:	0c 5d       	add	r13,	r12	
    c4bc:	0c 59       	add	r9,	r12	
    c4be:	dc 46 01 00 	mov.b	1(r6),	2(r12)	;0x0001(r6), 0x0002(r12)
    c4c2:	02 00 
    c4c4:	19 53       	inc	r9		
    c4c6:	09 97       	cmp	r7,	r9	
    c4c8:	f1 3b       	jl	$-28     	;abs 0xc4ac
    c4ca:	0c 4a       	mov	r10,	r12	
    c4cc:	0c 5c       	rla	r12		
    c4ce:	0c 5c       	rla	r12		
    c4d0:	0c 5c       	rla	r12		
    c4d2:	0c 5c       	rla	r12		
    c4d4:	0c 5d       	add	r13,	r12	
    c4d6:	0c 59       	add	r9,	r12	
    c4d8:	cc 43 02 00 	mov.b	#0,	2(r12)	;r3 As==00, 0x0002(r12)
    c4dc:	1a 53       	inc	r10		
    c4de:	0c 4b       	mov	r11,	r12	
    c4e0:	1b 53       	inc	r11		
    c4e2:	0b 9e       	cmp	r14,	r11	
    c4e4:	c9 3b       	jl	$-108    	;abs 0xc478
    c4e6:	cd 4a 00 00 	mov.b	r10,	0(r13)	;0x0000(r13)
    c4ea:	0f 43       	clr	r15		
    c4ec:	03 3c       	jmp	$+8      	;abs 0xc4f4
    c4ee:	1f 43       	mov	#1,	r15	;r3 As==01
    c4f0:	01 3c       	jmp	$+4      	;abs 0xc4f4
    c4f2:	2f 43       	mov	#2,	r15	;r3 As==10
    c4f4:	35 41       	pop	r5		
    c4f6:	36 41       	pop	r6		
    c4f8:	37 41       	pop	r7		
    c4fa:	38 41       	pop	r8		
    c4fc:	39 41       	pop	r9		
    c4fe:	3a 41       	pop	r10		
    c500:	3b 41       	pop	r11		
    c502:	30 41       	ret			

0000c504 <shell_process_cmds>:
    c504:	0b 12       	push	r11		
    c506:	0a 12       	push	r10		
    c508:	09 12       	push	r9		
    c50a:	08 12       	push	r8		
    c50c:	07 12       	push	r7		
    c50e:	06 12       	push	r6		
    c510:	31 50 ae ff 	add	#-82,	r1	;#0xffae
    c514:	0b 4f       	mov	r15,	r11	
    c516:	08 4e       	mov	r14,	r8	
    c518:	09 4f       	mov	r15,	r9	
    c51a:	0a 43       	clr	r10		
    c51c:	27 3c       	jmp	$+80     	;abs 0xc56c
    c51e:	0f 48       	mov	r8,	r15	
    c520:	b0 12 d2 c3 	call	#0xc3d2	
    c524:	07 4f       	mov	r15,	r7	
    c526:	16 49 02 00 	mov	2(r9),	r6	;0x0002(r9)
    c52a:	0f 46       	mov	r6,	r15	
    c52c:	b0 12 d2 c3 	call	#0xc3d2	
    c530:	0c 47       	mov	r7,	r12	
    c532:	0d 4f       	mov	r15,	r13	
    c534:	0e 48       	mov	r8,	r14	
    c536:	0f 46       	mov	r6,	r15	
    c538:	b0 12 ea c3 	call	#0xc3ea	
    c53c:	39 50 06 00 	add	#6,	r9	;#0x0006
    c540:	0f 93       	tst	r15		
    c542:	13 20       	jnz	$+40     	;abs 0xc56a
    c544:	0d 41       	mov	r1,	r13	
    c546:	0e 47       	mov	r7,	r14	
    c548:	0f 48       	mov	r8,	r15	
    c54a:	b0 12 5e c4 	call	#0xc45e	
    c54e:	1f 93       	cmp	#1,	r15	;r3 As==01
    c550:	13 24       	jz	$+40     	;abs 0xc578
    c552:	2f 93       	cmp	#2,	r15	;r3 As==10
    c554:	14 24       	jz	$+42     	;abs 0xc57e
    c556:	0e 4a       	mov	r10,	r14	
    c558:	1e 53       	inc	r14		
    c55a:	0d 4e       	mov	r14,	r13	
    c55c:	0d 5d       	rla	r13		
    c55e:	0e 5d       	add	r13,	r14	
    c560:	0e 5e       	rla	r14		
    c562:	0e 5b       	add	r11,	r14	
    c564:	0f 41       	mov	r1,	r15	
    c566:	ae 12       	call	@r14		
    c568:	0c 3c       	jmp	$+26     	;abs 0xc582
    c56a:	1a 53       	inc	r10		
    c56c:	6f 4b       	mov.b	@r11,	r15	
    c56e:	0a 9f       	cmp	r15,	r10	
    c570:	d6 3b       	jl	$-82     	;abs 0xc51e
    c572:	3f 40 f2 ff 	mov	#-14,	r15	;#0xfff2
    c576:	05 3c       	jmp	$+12     	;abs 0xc582
    c578:	3f 40 f0 ff 	mov	#-16,	r15	;#0xfff0
    c57c:	02 3c       	jmp	$+6      	;abs 0xc582
    c57e:	3f 40 f1 ff 	mov	#-15,	r15	;#0xfff1
    c582:	31 50 52 00 	add	#82,	r1	;#0x0052
    c586:	36 41       	pop	r6		
    c588:	37 41       	pop	r7		
    c58a:	38 41       	pop	r8		
    c58c:	39 41       	pop	r9		
    c58e:	3a 41       	pop	r10		
    c590:	3b 41       	pop	r11		
    c592:	30 41       	ret			

0000c594 <_xtoa>:
    c594:	0b 12       	push	r11		
    c596:	0a 12       	push	r10		
    c598:	09 12       	push	r9		
    c59a:	08 12       	push	r8		
    c59c:	07 12       	push	r7		
    c59e:	0a 4e       	mov	r14,	r10	
    c5a0:	0b 4f       	mov	r15,	r11	
    c5a2:	07 4d       	mov	r13,	r7	
    c5a4:	0e 93       	tst	r14		
    c5a6:	04 20       	jnz	$+10     	;abs 0xc5b0
    c5a8:	0b 93       	tst	r11		
    c5aa:	1f 24       	jz	$+64     	;abs 0xc5ea
    c5ac:	01 3c       	jmp	$+4      	;abs 0xc5b0
    c5ae:	27 52       	add	#4,	r7	;r2 As==10
    c5b0:	1b 97 02 00 	cmp	2(r7),	r11	;0x0002(r7)
    c5b4:	fc 2b       	jnc	$-6      	;abs 0xc5ae
    c5b6:	02 20       	jnz	$+6      	;abs 0xc5bc
    c5b8:	2a 97       	cmp	@r7,	r10	
    c5ba:	f9 2b       	jnc	$-12     	;abs 0xc5ae
    c5bc:	38 47       	mov	@r7+,	r8	
    c5be:	39 47       	mov	@r7+,	r9	
    c5c0:	7f 40 30 00 	mov.b	#48,	r15	;#0x0030
    c5c4:	03 3c       	jmp	$+8      	;abs 0xc5cc
    c5c6:	5f 53       	inc.b	r15		
    c5c8:	0a 88       	sub	r8,	r10	
    c5ca:	0b 79       	subc	r9,	r11	
    c5cc:	0b 99       	cmp	r9,	r11	
    c5ce:	04 28       	jnc	$+10     	;abs 0xc5d8
    c5d0:	09 9b       	cmp	r11,	r9	
    c5d2:	f9 2b       	jnc	$-12     	;abs 0xc5c6
    c5d4:	0a 98       	cmp	r8,	r10	
    c5d6:	f7 2f       	jc	$-16     	;abs 0xc5c6
    c5d8:	b0 12 fe c7 	call	#0xc7fe	
    c5dc:	18 f3       	and	#1,	r8	;r3 As==01
    c5de:	09 f3       	and	#0,	r9	;r3 As==00
    c5e0:	08 93       	tst	r8		
    c5e2:	07 20       	jnz	$+16     	;abs 0xc5f2
    c5e4:	09 93       	tst	r9		
    c5e6:	ea 27       	jz	$-42     	;abs 0xc5bc
    c5e8:	04 3c       	jmp	$+10     	;abs 0xc5f2
    c5ea:	7f 40 30 00 	mov.b	#48,	r15	;#0x0030
    c5ee:	b0 12 fe c7 	call	#0xc7fe	
    c5f2:	37 41       	pop	r7		
    c5f4:	38 41       	pop	r8		
    c5f6:	39 41       	pop	r9		
    c5f8:	3a 41       	pop	r10		
    c5fa:	3b 41       	pop	r11		
    c5fc:	30 41       	ret			

0000c5fe <_puth>:
    c5fe:	3f f0 0f 00 	and	#15,	r15	;#0x000f
    c602:	5f 4f 70 cb 	mov.b	-13456(r15),r15	;0xcb70(r15)
    c606:	b0 12 fe c7 	call	#0xc7fe	
    c60a:	30 41       	ret			

0000c60c <cio_print>:
    c60c:	0b 12       	push	r11		
    c60e:	0b 4f       	mov	r15,	r11	
    c610:	02 3c       	jmp	$+6      	;abs 0xc616
    c612:	b0 12 fe c7 	call	#0xc7fe	
    c616:	7f 4b       	mov.b	@r11+,	r15	
    c618:	4f 93       	tst.b	r15		
    c61a:	fb 23       	jnz	$-8      	;abs 0xc612
    c61c:	3b 41       	pop	r11		
    c61e:	30 41       	ret			

0000c620 <cio_printi>:
    c620:	0b 12       	push	r11		
    c622:	0a 12       	push	r10		
    c624:	09 12       	push	r9		
    c626:	31 50 e0 ff 	add	#-32,	r1	;#0xffe0
    c62a:	0b 4f       	mov	r15,	r11	
    c62c:	0f 93       	tst	r15		
    c62e:	06 24       	jz	$+14     	;abs 0xc63c
    c630:	09 41       	mov	r1,	r9	
    c632:	39 50 1e 00 	add	#30,	r9	;#0x001e
    c636:	3a 40 0f 00 	mov	#15,	r10	;#0x000f
    c63a:	18 3c       	jmp	$+50     	;abs 0xc66c
    c63c:	7f 40 30 00 	mov.b	#48,	r15	;#0x0030
    c640:	b0 12 fe c7 	call	#0xc7fe	
    c644:	24 3c       	jmp	$+74     	;abs 0xc68e
    c646:	3e 40 0a 00 	mov	#10,	r14	;#0x000a
    c64a:	0f 4b       	mov	r11,	r15	
    c64c:	b0 12 9e c9 	call	#0xc99e	
    c650:	3f 50 30 00 	add	#48,	r15	;#0x0030
    c654:	89 4f 00 00 	mov	r15,	0(r9)	;0x0000(r9)
    c658:	3e 40 0a 00 	mov	#10,	r14	;#0x000a
    c65c:	0f 4b       	mov	r11,	r15	
    c65e:	b0 12 6c c9 	call	#0xc96c	
    c662:	0b 4f       	mov	r15,	r11	
    c664:	3a 53       	add	#-1,	r10	;r3 As==11
    c666:	29 83       	decd	r9		
    c668:	0a 93       	tst	r10		
    c66a:	02 24       	jz	$+6      	;abs 0xc670
    c66c:	1b 93       	cmp	#1,	r11	;r3 As==01
    c66e:	eb 37       	jge	$-40     	;abs 0xc646
    c670:	09 4a       	mov	r10,	r9	
    c672:	0b 43       	clr	r11		
    c674:	07 3c       	jmp	$+16     	;abs 0xc684
    c676:	0f 4a       	mov	r10,	r15	
    c678:	0f 5f       	rla	r15		
    c67a:	0f 51       	add	r1,	r15	
    c67c:	0f 5b       	add	r11,	r15	
    c67e:	6f 4f       	mov.b	@r15,	r15	
    c680:	b0 12 fe c7 	call	#0xc7fe	
    c684:	19 53       	inc	r9		
    c686:	2b 53       	incd	r11		
    c688:	39 90 10 00 	cmp	#16,	r9	;#0x0010
    c68c:	f4 23       	jnz	$-22     	;abs 0xc676
    c68e:	31 50 20 00 	add	#32,	r1	;#0x0020
    c692:	39 41       	pop	r9		
    c694:	3a 41       	pop	r10		
    c696:	3b 41       	pop	r11		
    c698:	30 41       	ret			

0000c69a <cio_printb>:
    c69a:	0b 12       	push	r11		
    c69c:	0a 12       	push	r10		
    c69e:	0a 4f       	mov	r15,	r10	
    c6a0:	0b 4e       	mov	r14,	r11	
    c6a2:	12 3c       	jmp	$+38     	;abs 0xc6c8
    c6a4:	0d 4a       	mov	r10,	r13	
    c6a6:	4e 4b       	mov.b	r11,	r14	
    c6a8:	7e f0 0f 00 	and.b	#15,	r14	;#0x000f
    c6ac:	4e 93       	tst.b	r14		
    c6ae:	03 24       	jz	$+8      	;abs 0xc6b6
    c6b0:	0d 11       	rra	r13		
    c6b2:	7e 53       	add.b	#-1,	r14	;r3 As==11
    c6b4:	fb 3f       	jmp	$-8      	;abs 0xc6ac
    c6b6:	1d f3       	and	#1,	r13	;r3 As==01
    c6b8:	03 24       	jz	$+8      	;abs 0xc6c0
    c6ba:	7f 40 31 00 	mov.b	#49,	r15	;#0x0031
    c6be:	02 3c       	jmp	$+6      	;abs 0xc6c4
    c6c0:	7f 40 30 00 	mov.b	#48,	r15	;#0x0030
    c6c4:	b0 12 fe c7 	call	#0xc7fe	
    c6c8:	3b 53       	add	#-1,	r11	;r3 As==11
    c6ca:	0b 93       	tst	r11		
    c6cc:	eb 37       	jge	$-40     	;abs 0xc6a4
    c6ce:	3a 41       	pop	r10		
    c6d0:	3b 41       	pop	r11		
    c6d2:	30 41       	ret			

0000c6d4 <cio_printf>:
    c6d4:	0b 12       	push	r11		
    c6d6:	0a 12       	push	r10		
    c6d8:	09 12       	push	r9		
    c6da:	08 12       	push	r8		
    c6dc:	0b 41       	mov	r1,	r11	
    c6de:	3b 50 0a 00 	add	#10,	r11	;#0x000a
    c6e2:	3a 4b       	mov	@r11+,	r10	
    c6e4:	84 3c       	jmp	$+266    	;abs 0xc7ee
    c6e6:	7f 90 25 00 	cmp.b	#37,	r15	;#0x0025
    c6ea:	7e 20       	jnz	$+254    	;abs 0xc7e8
    c6ec:	5f 4a 01 00 	mov.b	1(r10),	r15	;0x0001(r10)
    c6f0:	2a 53       	incd	r10		
    c6f2:	7f 90 6e 00 	cmp.b	#110,	r15	;#0x006e
    c6f6:	3e 24       	jz	$+126    	;abs 0xc774
    c6f8:	7f 90 6f 00 	cmp.b	#111,	r15	;#0x006f
    c6fc:	10 34       	jge	$+34     	;abs 0xc71e
    c6fe:	7f 90 69 00 	cmp.b	#105,	r15	;#0x0069
    c702:	23 24       	jz	$+72     	;abs 0xc74a
    c704:	7f 90 6a 00 	cmp.b	#106,	r15	;#0x006a
    c708:	06 34       	jge	$+14     	;abs 0xc716
    c70a:	4f 93       	tst.b	r15		
    c70c:	73 24       	jz	$+232    	;abs 0xc7f4
    c70e:	7f 90 63 00 	cmp.b	#99,	r15	;#0x0063
    c712:	6b 20       	jnz	$+216    	;abs 0xc7ea
    c714:	13 3c       	jmp	$+40     	;abs 0xc73c
    c716:	7f 90 6c 00 	cmp.b	#108,	r15	;#0x006c
    c71a:	67 20       	jnz	$+208    	;abs 0xc7ea
    c71c:	2b 3c       	jmp	$+88     	;abs 0xc774
    c71e:	7f 90 75 00 	cmp.b	#117,	r15	;#0x0075
    c722:	13 24       	jz	$+40     	;abs 0xc74a
    c724:	7f 90 78 00 	cmp.b	#120,	r15	;#0x0078
    c728:	43 24       	jz	$+136    	;abs 0xc7b0
    c72a:	7f 90 73 00 	cmp.b	#115,	r15	;#0x0073
    c72e:	5d 20       	jnz	$+188    	;abs 0xc7ea
    c730:	09 4b       	mov	r11,	r9	
    c732:	29 53       	incd	r9		
    c734:	2f 4b       	mov	@r11,	r15	
    c736:	b0 12 0c c6 	call	#0xc60c	
    c73a:	05 3c       	jmp	$+12     	;abs 0xc746
    c73c:	09 4b       	mov	r11,	r9	
    c73e:	29 53       	incd	r9		
    c740:	6f 4b       	mov.b	@r11,	r15	
    c742:	b0 12 fe c7 	call	#0xc7fe	
    c746:	0b 49       	mov	r9,	r11	
    c748:	52 3c       	jmp	$+166    	;abs 0xc7ee
    c74a:	09 4b       	mov	r11,	r9	
    c74c:	29 53       	incd	r9		
    c74e:	2b 4b       	mov	@r11,	r11	
    c750:	7f 90 69 00 	cmp.b	#105,	r15	;#0x0069
    c754:	08 20       	jnz	$+18     	;abs 0xc766
    c756:	0b 93       	tst	r11		
    c758:	06 34       	jge	$+14     	;abs 0xc766
    c75a:	3b e3       	inv	r11		
    c75c:	1b 53       	inc	r11		
    c75e:	7f 40 2d 00 	mov.b	#45,	r15	;#0x002d
    c762:	b0 12 fe c7 	call	#0xc7fe	
    c766:	3d 40 5c cb 	mov	#-13476,r13	;#0xcb5c
    c76a:	0e 4b       	mov	r11,	r14	
    c76c:	0f 43       	clr	r15		
    c76e:	b0 12 94 c5 	call	#0xc594	
    c772:	e9 3f       	jmp	$-44     	;abs 0xc746
    c774:	08 4b       	mov	r11,	r8	
    c776:	28 52       	add	#4,	r8	;r2 As==10
    c778:	29 4b       	mov	@r11,	r9	
    c77a:	1b 4b 02 00 	mov	2(r11),	r11	;0x0002(r11)
    c77e:	7f 90 6c 00 	cmp.b	#108,	r15	;#0x006c
    c782:	0e 20       	jnz	$+30     	;abs 0xc7a0
    c784:	0b 93       	tst	r11		
    c786:	0c 34       	jge	$+26     	;abs 0xc7a0
    c788:	0c 49       	mov	r9,	r12	
    c78a:	0d 4b       	mov	r11,	r13	
    c78c:	3c e3       	inv	r12		
    c78e:	3d e3       	inv	r13		
    c790:	1c 53       	inc	r12		
    c792:	0d 63       	adc	r13		
    c794:	09 4c       	mov	r12,	r9	
    c796:	0b 4d       	mov	r13,	r11	
    c798:	7f 40 2d 00 	mov.b	#45,	r15	;#0x002d
    c79c:	b0 12 fe c7 	call	#0xc7fe	
    c7a0:	3d 40 48 cb 	mov	#-13496,r13	;#0xcb48
    c7a4:	0e 49       	mov	r9,	r14	
    c7a6:	0f 4b       	mov	r11,	r15	
    c7a8:	b0 12 94 c5 	call	#0xc594	
    c7ac:	0b 48       	mov	r8,	r11	
    c7ae:	1f 3c       	jmp	$+64     	;abs 0xc7ee
    c7b0:	09 4b       	mov	r11,	r9	
    c7b2:	29 53       	incd	r9		
    c7b4:	2b 4b       	mov	@r11,	r11	
    c7b6:	0f 4b       	mov	r11,	r15	
    c7b8:	8f 10       	swpb	r15		
    c7ba:	8f 11       	sxt	r15		
    c7bc:	0f 11       	rra	r15		
    c7be:	0f 11       	rra	r15		
    c7c0:	0f 11       	rra	r15		
    c7c2:	0f 11       	rra	r15		
    c7c4:	b0 12 fe c5 	call	#0xc5fe	
    c7c8:	0f 4b       	mov	r11,	r15	
    c7ca:	8f 10       	swpb	r15		
    c7cc:	8f 11       	sxt	r15		
    c7ce:	b0 12 fe c5 	call	#0xc5fe	
    c7d2:	0f 4b       	mov	r11,	r15	
    c7d4:	0f 11       	rra	r15		
    c7d6:	0f 11       	rra	r15		
    c7d8:	0f 11       	rra	r15		
    c7da:	0f 11       	rra	r15		
    c7dc:	b0 12 fe c5 	call	#0xc5fe	
    c7e0:	0f 4b       	mov	r11,	r15	
    c7e2:	b0 12 fe c5 	call	#0xc5fe	
    c7e6:	af 3f       	jmp	$-160    	;abs 0xc746
    c7e8:	1a 53       	inc	r10		
    c7ea:	b0 12 fe c7 	call	#0xc7fe	
    c7ee:	6f 4a       	mov.b	@r10,	r15	
    c7f0:	4f 93       	tst.b	r15		
    c7f2:	79 23       	jnz	$-268    	;abs 0xc6e6
    c7f4:	38 41       	pop	r8		
    c7f6:	39 41       	pop	r9		
    c7f8:	3a 41       	pop	r10		
    c7fa:	3b 41       	pop	r11		
    c7fc:	30 41       	ret			

0000c7fe <cio_printc>:
    c7fe:	b0 12 4a c9 	call	#0xc94a	
    c802:	30 41       	ret			

0000c804 <cio_getc>:
    c804:	b0 12 5e c9 	call	#0xc95e	
    c808:	30 41       	ret			

0000c80a <serial_clk_init>:
    c80a:	f2 d0 06 00 	bis.b	#6,	&0x0026	;#0x0006
    c80e:	26 00 
    c810:	f2 d0 06 00 	bis.b	#6,	&0x0041	;#0x0006
    c814:	41 00 
    c816:	f2 d0 80 ff 	bis.b	#-128,	&0x0061	;#0xff80
    c81a:	61 00 
    c81c:	3e 90 00 12 	cmp	#4608,	r14	;#0x1200
    c820:	04 20       	jnz	$+10     	;abs 0xc82a
    c822:	3f 90 7a 00 	cmp	#122,	r15	;#0x007a
    c826:	67 20       	jnz	$+208    	;abs 0xc8f6
    c828:	07 3c       	jmp	$+16     	;abs 0xc838
    c82a:	3e 90 00 24 	cmp	#9216,	r14	;#0x2400
    c82e:	63 20       	jnz	$+200    	;abs 0xc8f6
    c830:	3f 90 f4 00 	cmp	#244,	r15	;#0x00f4
    c834:	60 20       	jnz	$+194    	;abs 0xc8f6
    c836:	2a 3c       	jmp	$+86     	;abs 0xc88c
    c838:	3d 90 00 84 	cmp	#-31744,r13	;#0x8400
    c83c:	21 24       	jz	$+68     	;abs 0xc880
    c83e:	3d 90 01 84 	cmp	#-31743,r13	;#0x8401
    c842:	07 2c       	jc	$+16     	;abs 0xc852
    c844:	3d 90 80 25 	cmp	#9600,	r13	;#0x2580
    c848:	38 24       	jz	$+114    	;abs 0xc8ba
    c84a:	3d 90 00 4b 	cmp	#19200,	r13	;#0x4b00
    c84e:	35 20       	jnz	$+108    	;abs 0xc8ba
    c850:	0a 3c       	jmp	$+22     	;abs 0xc866
    c852:	3d 90 00 c2 	cmp	#-15872,r13	;#0xc200
    c856:	42 24       	jz	$+134    	;abs 0xc8dc
    c858:	3d 90 00 e1 	cmp	#-7936,	r13	;#0xe100
    c85c:	39 24       	jz	$+116    	;abs 0xc8d0
    c85e:	3d 90 00 96 	cmp	#-27136,r13	;#0x9600
    c862:	2b 20       	jnz	$+88     	;abs 0xc8ba
    c864:	07 3c       	jmp	$+16     	;abs 0xc874
    c866:	f2 40 1a 00 	mov.b	#26,	&0x0062	;#0x001a
    c86a:	62 00 
    c86c:	f2 40 11 00 	mov.b	#17,	&0x0064	;#0x0011
    c870:	64 00 
    c872:	5a 3c       	jmp	$+182    	;abs 0xc928
    c874:	f2 40 0d 00 	mov.b	#13,	&0x0062	;#0x000d
    c878:	62 00 
    c87a:	d2 43 64 00 	mov.b	#1,	&0x0064	;r3 As==01
    c87e:	54 3c       	jmp	$+170    	;abs 0xc928
    c880:	e2 43 62 00 	mov.b	#2,	&0x0062	;r3 As==10
    c884:	f2 40 27 00 	mov.b	#39,	&0x0064	;#0x0027
    c888:	64 00 
    c88a:	4e 3c       	jmp	$+158    	;abs 0xc928
    c88c:	3d 90 00 84 	cmp	#-31744,r13	;#0x8400
    c890:	25 24       	jz	$+76     	;abs 0xc8dc
    c892:	3d 90 01 84 	cmp	#-31743,r13	;#0x8401
    c896:	07 2c       	jc	$+16     	;abs 0xc8a6
    c898:	3d 90 80 25 	cmp	#9600,	r13	;#0x2580
    c89c:	25 24       	jz	$+76     	;abs 0xc8e8
    c89e:	3d 90 00 4b 	cmp	#19200,	r13	;#0x4b00
    c8a2:	22 20       	jnz	$+70     	;abs 0xc8e8
    c8a4:	0a 3c       	jmp	$+22     	;abs 0xc8ba
    c8a6:	3d 90 00 c2 	cmp	#-15872,r13	;#0xc200
    c8aa:	12 24       	jz	$+38     	;abs 0xc8d0
    c8ac:	3d 90 00 e1 	cmp	#-7936,	r13	;#0xe100
    c8b0:	08 24       	jz	$+18     	;abs 0xc8c2
    c8b2:	3d 90 00 96 	cmp	#-27136,r13	;#0x9600
    c8b6:	18 20       	jnz	$+50     	;abs 0xc8e8
    c8b8:	d6 3f       	jmp	$-82     	;abs 0xc866
    c8ba:	f2 40 34 00 	mov.b	#52,	&0x0062	;#0x0034
    c8be:	62 00 
    c8c0:	d5 3f       	jmp	$-84     	;abs 0xc86c
    c8c2:	f2 40 11 00 	mov.b	#17,	&0x0062	;#0x0011
    c8c6:	62 00 
    c8c8:	f2 40 61 00 	mov.b	#97,	&0x0064	;#0x0061
    c8cc:	64 00 
    c8ce:	2c 3c       	jmp	$+90     	;abs 0xc928
    c8d0:	f2 42 62 00 	mov.b	#8,	&0x0062	;r2 As==11
    c8d4:	f2 40 b1 ff 	mov.b	#-79,	&0x0064	;#0xffb1
    c8d8:	64 00 
    c8da:	26 3c       	jmp	$+78     	;abs 0xc928
    c8dc:	e2 42 62 00 	mov.b	#4,	&0x0062	;r2 As==10
    c8e0:	f2 40 3b 00 	mov.b	#59,	&0x0064	;#0x003b
    c8e4:	64 00 
    c8e6:	20 3c       	jmp	$+66     	;abs 0xc928
    c8e8:	f2 40 68 00 	mov.b	#104,	&0x0062	;#0x0068
    c8ec:	62 00 
    c8ee:	f2 40 31 00 	mov.b	#49,	&0x0064	;#0x0031
    c8f2:	64 00 
    c8f4:	19 3c       	jmp	$+52     	;abs 0xc928
    c8f6:	3d 90 00 4b 	cmp	#19200,	r13	;#0x4b00
    c8fa:	0a 24       	jz	$+22     	;abs 0xc910
    c8fc:	3d 90 00 e1 	cmp	#-7936,	r13	;#0xe100
    c900:	0e 24       	jz	$+30     	;abs 0xc91e
    c902:	f2 40 06 00 	mov.b	#6,	&0x0062	;#0x0006
    c906:	62 00 
    c908:	f2 40 81 ff 	mov.b	#-127,	&0x0064	;#0xff81
    c90c:	64 00 
    c90e:	0c 3c       	jmp	$+26     	;abs 0xc928
    c910:	f2 40 03 00 	mov.b	#3,	&0x0062	;#0x0003
    c914:	62 00 
    c916:	f2 40 41 00 	mov.b	#65,	&0x0064	;#0x0041
    c91a:	64 00 
    c91c:	05 3c       	jmp	$+12     	;abs 0xc928
    c91e:	d2 43 62 00 	mov.b	#1,	&0x0062	;r3 As==01
    c922:	f2 40 0f 00 	mov.b	#15,	&0x0064	;#0x000f
    c926:	64 00 
    c928:	c2 43 63 00 	mov.b	#0,	&0x0063	;r3 As==00
    c92c:	f2 f0 fe ff 	and.b	#-2,	&0x0061	;#0xfffe
    c930:	61 00 
    c932:	30 41       	ret			

0000c934 <serial_init>:
    c934:	0d 4f       	mov	r15,	r13	
    c936:	3e 40 40 42 	mov	#16960,	r14	;#0x4240
    c93a:	3f 40 0f 00 	mov	#15,	r15	;#0x000f
    c93e:	b0 12 0a c8 	call	#0xc80a	
    c942:	30 41       	ret			

0000c944 <serial_send>:
    c944:	c2 4f 67 00 	mov.b	r15,	&0x0067	
    c948:	30 41       	ret			

0000c94a <serial_send_blocking>:
    c94a:	5e 42 03 00 	mov.b	&0x0003,r14	
    c94e:	2e f3       	and	#2,	r14	;r3 As==10
    c950:	fc 27       	jz	$-6      	;abs 0xc94a
    c952:	c2 4f 67 00 	mov.b	r15,	&0x0067	
    c956:	30 41       	ret			

0000c958 <serial_recv>:
    c958:	5f 42 66 00 	mov.b	&0x0066,r15	
    c95c:	30 41       	ret			

0000c95e <serial_recv_blocking>:
    c95e:	5f 42 03 00 	mov.b	&0x0003,r15	
    c962:	1f f3       	and	#1,	r15	;r3 As==01
    c964:	fc 27       	jz	$-6      	;abs 0xc95e
    c966:	5f 42 66 00 	mov.b	&0x0066,r15	
    c96a:	30 41       	ret			

0000c96c <__divhi3>:
    c96c:	0d 43       	clr	r13		
    c96e:	0f 93       	tst	r15		
    c970:	04 34       	jge	$+10     	;abs 0xc97a
    c972:	3d 40 03 00 	mov	#3,	r13	;#0x0003
    c976:	3f e3       	inv	r15		
    c978:	1f 53       	inc	r15		
    c97a:	0e 93       	tst	r14		
    c97c:	03 34       	jge	$+8      	;abs 0xc984
    c97e:	5d e3       	xor.b	#1,	r13	;r3 As==01
    c980:	3e e3       	inv	r14		
    c982:	1e 53       	inc	r14		
    c984:	0d 12       	push	r13		
    c986:	b0 12 a6 c9 	call	#0xc9a6	
    c98a:	3d 41       	pop	r13		
    c98c:	6d b3       	bit.b	#2,	r13	;r3 As==10
    c98e:	02 24       	jz	$+6      	;abs 0xc994
    c990:	3e e3       	inv	r14		
    c992:	1e 53       	inc	r14		
    c994:	5d b3       	bit.b	#1,	r13	;r3 As==01
    c996:	02 24       	jz	$+6      	;abs 0xc99c
    c998:	3f e3       	inv	r15		
    c99a:	1f 53       	inc	r15		
    c99c:	30 41       	ret			

0000c99e <__modhi3>:
    c99e:	b0 12 6c c9 	call	#0xc96c	
    c9a2:	0f 4e       	mov	r14,	r15	
    c9a4:	30 41       	ret			

0000c9a6 <__udivhi3>:
    c9a6:	7c 40 10 00 	mov.b	#16,	r12	;#0x0010
    c9aa:	0d 4e       	mov	r14,	r13	
    c9ac:	0e 43       	clr	r14		
    c9ae:	0f 5f       	rla	r15		
    c9b0:	0e 6e       	rlc	r14		
    c9b2:	0e 9d       	cmp	r13,	r14	
    c9b4:	02 28       	jnc	$+6      	;abs 0xc9ba
    c9b6:	0e 8d       	sub	r13,	r14	
    c9b8:	1f d3       	bis	#1,	r15	;r3 As==01
    c9ba:	1c 83       	dec	r12		
    c9bc:	f8 23       	jnz	$-14     	;abs 0xc9ae
    c9be:	30 41       	ret			

0000c9c0 <__umodhi3>:
    c9c0:	b0 12 a6 c9 	call	#0xc9a6	
    c9c4:	0f 4e       	mov	r14,	r15	
    c9c6:	30 41       	ret			

0000c9c8 <memset>:
    c9c8:	0b 12       	push	r11		
    c9ca:	0a 12       	push	r10		
    c9cc:	09 12       	push	r9		
    c9ce:	08 12       	push	r8		
    c9d0:	3d 90 06 00 	cmp	#6,	r13	;#0x0006
    c9d4:	09 2c       	jc	$+20     	;abs 0xc9e8
    c9d6:	0c 4f       	mov	r15,	r12	
    c9d8:	04 3c       	jmp	$+10     	;abs 0xc9e2
    c9da:	cc 4e 00 00 	mov.b	r14,	0(r12)	;0x0000(r12)
    c9de:	1c 53       	inc	r12		
    c9e0:	3d 53       	add	#-1,	r13	;r3 As==11
    c9e2:	0d 93       	tst	r13		
    c9e4:	fa 23       	jnz	$-10     	;abs 0xc9da
    c9e6:	20 3c       	jmp	$+66     	;abs 0xca28
    c9e8:	4e 4e       	mov.b	r14,	r14	
    c9ea:	4b 4e       	mov.b	r14,	r11	
    c9ec:	0b 93       	tst	r11		
    c9ee:	03 24       	jz	$+8      	;abs 0xc9f6
    c9f0:	0c 4b       	mov	r11,	r12	
    c9f2:	8c 10       	swpb	r12		
    c9f4:	0b dc       	bis	r12,	r11	
    c9f6:	1f b3       	bit	#1,	r15	;r3 As==01
    c9f8:	06 24       	jz	$+14     	;abs 0xca06
    c9fa:	3d 53       	add	#-1,	r13	;r3 As==11
    c9fc:	cf 4e 00 00 	mov.b	r14,	0(r15)	;0x0000(r15)
    ca00:	09 4f       	mov	r15,	r9	
    ca02:	19 53       	inc	r9		
    ca04:	01 3c       	jmp	$+4      	;abs 0xca08
    ca06:	09 4f       	mov	r15,	r9	
    ca08:	0c 4d       	mov	r13,	r12	
    ca0a:	12 c3       	clrc			
    ca0c:	0c 10       	rrc	r12		
    ca0e:	0a 49       	mov	r9,	r10	
    ca10:	08 4c       	mov	r12,	r8	
    ca12:	8a 4b 00 00 	mov	r11,	0(r10)	;0x0000(r10)
    ca16:	2a 53       	incd	r10		
    ca18:	38 53       	add	#-1,	r8	;r3 As==11
    ca1a:	fb 23       	jnz	$-8      	;abs 0xca12
    ca1c:	0c 5c       	rla	r12		
    ca1e:	0c 59       	add	r9,	r12	
    ca20:	1d f3       	and	#1,	r13	;r3 As==01
    ca22:	02 24       	jz	$+6      	;abs 0xca28
    ca24:	cc 4e 00 00 	mov.b	r14,	0(r12)	;0x0000(r12)
    ca28:	38 41       	pop	r8		
    ca2a:	39 41       	pop	r9		
    ca2c:	3a 41       	pop	r10		
    ca2e:	3b 41       	pop	r11		
    ca30:	30 41       	ret			

0000ca32 <_unexpected_>:
    ca32:	00 13       	reti			

Disassembly of section .rodata:

0000ca34 <hex>:
    ca34:	3f 06       	.word	0x063f;	????	
    ca36:	5b 4f 66 6d 	mov.b	28006(r15),r11	;0x6d66(r15)
    ca3a:	7d 07       	.word	0x077d;	????	
    ca3c:	7f 67       	addc.b	@r7+,	r15	
    ca3e:	77 7c       	subc.b	@r12+,	r7	
    ca40:	39 5e       	add	@r14+,	r9	
    ca42:	79 71       	subc.b	@r1+,	r9	
    ca44:	68 65       	addc.b	@r5,	r8	
    ca46:	6c 70       	subc.b	@r0,	r12	
    ca48:	00 6c       	addc	r12,	r0	
    ca4a:	69 73       	subc.b	#2,	r9	;r3 As==10
    ca4c:	74 20       	jnz	$+234    	;abs 0xcb36
    ca4e:	61 76       	subc.b	@r6,	r1	
    ca50:	61 69       	addc.b	@r9,	r1	
    ca52:	6c 61       	addc.b	@r1,	r12	
    ca54:	62 6c       	addc.b	@r12,	r2	
    ca56:	65 20       	jnz	$+204    	;abs 0xcb22
    ca58:	63 6f       	.word	0x6f63;	????	Illegal as 2-op instr
    ca5a:	6d 6d       	addc.b	@r13,	r13	
    ca5c:	61 6e       	addc.b	@r14,	r1	
    ca5e:	64 73       	subc.b	#2,	r4	;r3 As==10
    ca60:	00 61       	addc	r1,	r0	
    ca62:	72 67       	addc.b	@r7+,	r2	
    ca64:	73 00       	.word	0x0073;	????	
    ca66:	70 72       	subc.b	#8,	r0	;r2 As==11
    ca68:	69 6e       	addc.b	@r14,	r9	
    ca6a:	74 20       	jnz	$+234    	;abs 0xcb54
    ca6c:	62 61       	addc.b	@r1,	r2	
    ca6e:	63 6b       	.word	0x6b63;	????	Illegal as 2-op instr
    ca70:	20 67       	addc	@r7,	r0	
    ca72:	69 76       	subc.b	@r6,	r9	
    ca74:	65 6e       	addc.b	@r14,	r5	
    ca76:	20 61       	addc	@r1,	r0	
    ca78:	72 67       	addc.b	@r7+,	r2	
    ca7a:	75 6d       	addc.b	@r13+,	r5	
    ca7c:	65 6e       	addc.b	@r14,	r5	
    ca7e:	74 73       	subc.b	#-1,	r4	;r3 As==11
    ca80:	00 68       	addc	r8,	r0	
    ca82:	65 78       	subc.b	@r8,	r5	
    ca84:	64 00       	.word	0x0064;	????	
    ca86:	64 69       	addc.b	@r9,	r4	
    ca88:	73 70       	.word	0x7073;	????	Illegal as 2-op instr
    ca8a:	6c 61       	addc.b	@r1,	r12	
    ca8c:	79 20       	jnz	$+244    	;abs 0xcb80
    ca8e:	74 77       	subc.b	@r7+,	r4	
    ca90:	6f 20       	jnz	$+224    	;abs 0xcb70
    ca92:	63 68       	.word	0x6863;	????	Illegal as 2-op instr
    ca94:	61 72       	subc.b	#4,	r1	;r2 As==10
    ca96:	61 63       	addc.b	#2,	r1	;r3 As==10
    ca98:	74 65       	addc.b	@r5+,	r4	
    ca9a:	72 73       	subc.b	#-1,	r2	;r3 As==11
    ca9c:	20 61       	addc	@r1,	r0	
    ca9e:	73 20       	jnz	$+232    	;abs 0xcb86
    caa0:	68 65       	addc.b	@r5,	r8	
    caa2:	78 20       	jnz	$+242    	;abs 0xcb94
    caa4:	62 79       	subc.b	@r9,	r2	
    caa6:	74 65       	addc.b	@r5+,	r4	
    caa8:	73 20       	jnz	$+232    	;abs 0xcb90
    caaa:	6f 6e       	addc.b	@r14,	r15	
    caac:	20 74       	subc	@r4,	r0	
    caae:	68 65       	addc.b	@r5,	r8	
    cab0:	20 64       	addc	@r4,	r0	
    cab2:	69 73       	subc.b	#2,	r9	;r3 As==10
    cab4:	70 6c       	addc.b	@r12+,	r0	
    cab6:	61 79       	subc.b	@r9,	r1	
    cab8:	00 25       	jz	$+514    	;abs 0xccba
    caba:	73 3a       	jl	$-792    	;abs 0xc7a2
    cabc:	20 25       	jz	$+578    	;abs 0xccfe
    cabe:	73 0a       	.word	0x0a73;	????	
    cac0:	0d 00       	.word	0x000d;	????	
    cac2:	61 72       	subc.b	#4,	r1	;r2 As==10
    cac4:	67 73       	subc.b	#2,	r7	;r3 As==10
    cac6:	20 67       	addc	@r7,	r0	
    cac8:	69 76       	subc.b	@r6,	r9	
    caca:	65 6e       	addc.b	@r14,	r5	
    cacc:	3a 0a       	.word	0x0a3a;	????	
    cace:	0d 00       	.word	0x000d;	????	
    cad0:	20 2d       	jc	$+578    	;abs 0xcd12
    cad2:	20 25       	jz	$+578    	;abs 0xcd14
    cad4:	73 0a       	.word	0x0a73;	????	
    cad6:	0d 00       	.word	0x000d;	????	
    cad8:	24 20       	jnz	$+74     	;abs 0xcb22
    cada:	00 0a       	.word	0x0a00;	????	
    cadc:	0a 0d       	.word	0x0d0a;	????	
    cade:	00 45       	br	r5		
    cae0:	52 52 4f 52 	add.b	&0x524f,r2	
    cae4:	2c 20       	jnz	$+90     	;abs 0xcb3e
    cae6:	75 6e       	addc.b	@r14+,	r5	
    cae8:	6b 6e       	addc.b	@r14,	r11	
    caea:	6f 77       	subc.b	@r7,	r15	
    caec:	6e 20       	jnz	$+222    	;abs 0xcbca
    caee:	63 6f       	.word	0x6f63;	????	Illegal as 2-op instr
    caf0:	6d 6d       	addc.b	@r13,	r13	
    caf2:	61 6e       	addc.b	@r14,	r1	
    caf4:	64 20       	jnz	$+202    	;abs 0xcbbe
    caf6:	67 69       	addc.b	@r9,	r7	
    caf8:	76 65       	addc.b	@r5+,	r6	
    cafa:	6e 0a       	.word	0x0a6e;	????	
    cafc:	0d 00       	.word	0x000d;	????	
    cafe:	45 52       	add.b	r2,	r5	
    cb00:	52 4f 52 2c 	mov.b	11346(r15),r2	;0x2c52(r15)
    cb04:	20 61       	addc	@r1,	r0	
    cb06:	6e 20       	jnz	$+222    	;abs 0xcbe4
    cb08:	61 72       	subc.b	#4,	r1	;r2 As==10
    cb0a:	67 75       	subc.b	@r5,	r7	
    cb0c:	65 6d       	addc.b	@r13,	r5	
    cb0e:	65 6e       	addc.b	@r14,	r5	
    cb10:	74 20       	jnz	$+234    	;abs 0xcbfa
    cb12:	69 73       	subc.b	#2,	r9	;r3 As==10
    cb14:	20 74       	subc	@r4,	r0	
    cb16:	6f 6f       	addc.b	@r15,	r15	
    cb18:	20 6c       	addc	@r12,	r0	
    cb1a:	65 6e       	addc.b	@r14,	r5	
    cb1c:	67 74       	subc.b	@r4,	r7	
    cb1e:	68 79       	subc.b	@r9,	r8	
    cb20:	0a 0d       	.word	0x0d0a;	????	
    cb22:	00 45       	br	r5		
    cb24:	52 52 4f 52 	add.b	&0x524f,r2	
    cb28:	2c 20       	jnz	$+90     	;abs 0xcb82
    cb2a:	74 6f       	addc.b	@r15+,	r4	
    cb2c:	6f 20       	jnz	$+224    	;abs 0xcc0c
    cb2e:	6d 61       	addc.b	@r1,	r13	
    cb30:	6e 79       	subc.b	@r9,	r14	
    cb32:	20 61       	addc	@r1,	r0	
    cb34:	72 67       	addc.b	@r7+,	r2	
    cb36:	75 65       	addc.b	@r5+,	r5	
    cb38:	6d 65       	addc.b	@r5,	r13	
    cb3a:	6e 74       	subc.b	@r4,	r14	
    cb3c:	73 20       	jnz	$+232    	;abs 0xcc24
    cb3e:	67 69       	addc.b	@r9,	r7	
    cb40:	76 65       	addc.b	@r5+,	r6	
    cb42:	6e 0a       	.word	0x0a6e;	????	
    cb44:	0d 00       	.word	0x000d;	????	
    cb46:	0a 00       	.word	0x000a;	????	

0000cb48 <_dv>:
    cb48:	00 ca       	bic	r10,	r0	
    cb4a:	9a 3b       	jl	$-202    	;abs 0xca80
    cb4c:	00 e1       	xor	r1,	r0	
    cb4e:	f5 05       	.word	0x05f5;	????	
    cb50:	80 96 98 00 	cmp	r6,	152(r0)	;PC rel. 0xcbea
    cb54:	40 42       	br	r2		
    cb56:	0f 00       	.word	0x000f;	????	
    cb58:	a0 86 01 00 	sub	@r6,	1(r0)	;PC rel. 0xcb5b
    cb5c:	10 27       	jz	$-478    	;abs 0xc97e
    cb5e:	00 00       	.word	0x0000;	????	
    cb60:	e8 03       	.word	0x03e8;	????	
    cb62:	00 00       	.word	0x0000;	????	
    cb64:	64 00       	.word	0x0064;	????	
    cb66:	00 00       	.word	0x0000;	????	
    cb68:	0a 00       	.word	0x000a;	????	
    cb6a:	00 00       	.word	0x0000;	????	
    cb6c:	01 00       	.word	0x0001;	????	
	...

0000cb70 <hex.1308>:
    cb70:	30 31       	jn	$+610    	;abs 0xcdd2
    cb72:	32 33       	jn	$-410    	;abs 0xc9d8
    cb74:	34 35       	jge	$+618    	;abs 0xcdde
    cb76:	36 37       	jge	$-402    	;abs 0xc9e4
    cb78:	38 39       	jl	$+626    	;abs 0xcdea
    cb7a:	41 42       	mov.b	r2,	r1	
    cb7c:	43 44       	.word	0x4443;	????	Illegal as 2-op instr
    cb7e:	45 46       	mov.b	r6,	r5	

Disassembly of section .data:

00000200 <__data_start>:
 200:	03 00       	.word	0x0003;	????	
 202:	44 ca       	bic.b	r10,	r4	
 204:	49 ca       	bic.b	r10,	r9	
 206:	ac c1 61 ca 	bic	@r1,	-13727(r12);0xca61(r12)
 20a:	66 ca       	bic.b	@r10,	r6	
 20c:	fe c1 81 ca 	bic.b	@r1+,	-13695(r14);0xca81(r14)
 210:	86 ca 46 c2 	bic	r10,	-15802(r6);0xc246(r6)

Disassembly of section .bss:

00000214 <__bss_start>:
	...

00000216 <input>:
	...

Disassembly of section .noinit:

00000218 <__wdt_clear_value>:
	...

Disassembly of section .vectors:

0000ffe0 <__ivtbl_16>:
    ffe0:	a8 c1 a8 c1 	bic	@r1,	-15960(r8);0xc1a8(r8)
    ffe4:	c8 c3 a8 c1 	bic.b	#0,	-15960(r8);r3 As==00, 0xc1a8(r8)
    ffe8:	a8 c1 a8 c1 	bic	@r1,	-15960(r8);0xc1a8(r8)
    ffec:	a8 c1 a8 c1 	bic	@r1,	-15960(r8);0xc1a8(r8)
    fff0:	a8 c1 6e c2 	bic	@r1,	-15762(r8);0xc26e(r8)
    fff4:	a8 c1 a8 c1 	bic	@r1,	-15960(r8);0xc1a8(r8)
    fff8:	a8 c1 a8 c1 	bic	@r1,	-15960(r8);0xc1a8(r8)
    fffc:	a8 c1 00 c0 	bic	@r1,	-16384(r8);0xc000(r8)

Disassembly of section .debug_aranges:

00000000 <.debug_aranges>:
   0:	14 00       	.word	0x0014;	????	
   2:	00 00       	.word	0x0000;	????	
   4:	02 00       	.word	0x0002;	????	
   6:	00 00       	.word	0x0000;	????	
   8:	00 00       	.word	0x0000;	????	
   a:	02 00       	.word	0x0002;	????	
   c:	ac c1 26 02 	bic	@r1,	550(r12);0x0226(r12)
  10:	3e c0 64 01 	bic	#356,	r14	;#0x0164
  14:	00 00       	.word	0x0000;	????	
  16:	00 00       	.word	0x0000;	????	
  18:	10 00       	.word	0x0010;	????	
  1a:	00 00       	.word	0x0000;	????	
  1c:	02 00       	.word	0x0002;	????	
  1e:	4f 04       	.word	0x044f;	????	
  20:	00 00       	.word	0x0000;	????	
  22:	02 00       	.word	0x0002;	????	
  24:	d2 c3 c2 01 	bic.b	#1,	&0x01c2	;r3 As==01
  28:	00 00       	.word	0x0000;	????	
  2a:	00 00       	.word	0x0000;	????	
  2c:	10 00       	.word	0x0010;	????	
  2e:	00 00       	.word	0x0000;	????	
  30:	02 00       	.word	0x0002;	????	
  32:	8e 07       	.word	0x078e;	????	
  34:	00 00       	.word	0x0000;	????	
  36:	02 00       	.word	0x0002;	????	
  38:	94 c5 6a 02 	bic	618(r5),0(r4)	;0x026a(r5), 0x0000(r4)
  3c:	00 00 
  3e:	00 00       	.word	0x0000;	????	
  40:	10 00       	.word	0x0010;	????	
  42:	00 00       	.word	0x0000;	????	
  44:	02 00       	.word	0x0002;	????	
  46:	e2 09       	.word	0x09e2;	????	
  48:	00 00       	.word	0x0000;	????	
  4a:	02 00       	.word	0x0002;	????	
  4c:	fe c7 0c 00 	bic.b	@r7+,	12(r14)	;0x000c(r14)
  50:	00 00       	.word	0x0000;	????	
  52:	00 00       	.word	0x0000;	????	
  54:	10 00       	.word	0x0010;	????	
  56:	00 00       	.word	0x0000;	????	
  58:	02 00       	.word	0x0002;	????	
  5a:	40 0a       	.word	0x0a40;	????	
  5c:	00 00       	.word	0x0000;	????	
  5e:	02 00       	.word	0x0002;	????	
  60:	0a c8       	bic	r8,	r10	
  62:	62 01       	.word	0x0162;	????	
  64:	00 00       	.word	0x0000;	????	
  66:	00 00       	.word	0x0000;	????	
  68:	10 00       	.word	0x0010;	????	
  6a:	00 00       	.word	0x0000;	????	
  6c:	02 00       	.word	0x0002;	????	
  6e:	07 0c       	.word	0x0c07;	????	
  70:	00 00       	.word	0x0000;	????	
  72:	02 00       	.word	0x0002;	????	
  74:	6c c9       	bic.b	@r9,	r12	
  76:	3a 00       	.word	0x003a;	????	
  78:	00 00       	.word	0x0000;	????	
  7a:	00 00       	.word	0x0000;	????	
  7c:	10 00       	.word	0x0010;	????	
  7e:	00 00       	.word	0x0000;	????	
  80:	02 00       	.word	0x0002;	????	
  82:	91 0c       	.word	0x0c91;	????	
  84:	00 00       	.word	0x0000;	????	
  86:	02 00       	.word	0x0002;	????	
  88:	a6 c9 22 00 	bic	@r9,	34(r6)	;0x0022(r6)
  8c:	00 00       	.word	0x0000;	????	
  8e:	00 00       	.word	0x0000;	????	
  90:	10 00       	.word	0x0010;	????	
  92:	00 00       	.word	0x0000;	????	
  94:	02 00       	.word	0x0002;	????	
  96:	1b 0d       	.word	0x0d1b;	????	
  98:	00 00       	.word	0x0000;	????	
  9a:	02 00       	.word	0x0002;	????	
  9c:	c8 c9 6a 00 	bic.b	r9,	106(r8)	;0x006a(r8)
  a0:	00 00       	.word	0x0000;	????	
  a2:	00 00       	.word	0x0000;	????	
  a4:	10 00       	.word	0x0010;	????	
  a6:	00 00       	.word	0x0000;	????	
  a8:	02 00       	.word	0x0002;	????	
  aa:	19 0e       	.word	0x0e19;	????	
  ac:	00 00       	.word	0x0000;	????	
  ae:	02 00       	.word	0x0002;	????	
  b0:	00 c0       	bic	r0,	r0	
  b2:	0c 00       	.word	0x000c;	????	
  b4:	00 00       	.word	0x0000;	????	
  b6:	00 00       	.word	0x0000;	????	
  b8:	10 00       	.word	0x0010;	????	
  ba:	00 00       	.word	0x0000;	????	
  bc:	02 00       	.word	0x0002;	????	
  be:	8a 0e       	.word	0x0e8a;	????	
  c0:	00 00       	.word	0x0000;	????	
  c2:	02 00       	.word	0x0002;	????	
  c4:	0c c0       	bic	r0,	r12	
  c6:	04 00       	.word	0x0004;	????	
  c8:	00 00       	.word	0x0000;	????	
  ca:	00 00       	.word	0x0000;	????	
  cc:	10 00       	.word	0x0010;	????	
  ce:	00 00       	.word	0x0000;	????	
  d0:	02 00       	.word	0x0002;	????	
  d2:	fb 0e       	.word	0x0efb;	????	
  d4:	00 00       	.word	0x0000;	????	
  d6:	02 00       	.word	0x0002;	????	
  d8:	10 c0 18 00 	bic	24(r0),	r0	;PC rel. 0x00f2
  dc:	00 00       	.word	0x0000;	????	
  de:	00 00       	.word	0x0000;	????	
  e0:	10 00       	.word	0x0010;	????	
  e2:	00 00       	.word	0x0000;	????	
  e4:	02 00       	.word	0x0002;	????	
  e6:	6c 0f       	.word	0x0f6c;	????	
  e8:	00 00       	.word	0x0000;	????	
  ea:	02 00       	.word	0x0002;	????	
  ec:	28 c0       	bic	@r0,	r8	
  ee:	16 00       	.word	0x0016;	????	
  f0:	00 00       	.word	0x0000;	????	
  f2:	00 00       	.word	0x0000;	????	
  f4:	10 00       	.word	0x0010;	????	
  f6:	00 00       	.word	0x0000;	????	
  f8:	02 00       	.word	0x0002;	????	
  fa:	dd 0f       	.word	0x0fdd;	????	
  fc:	00 00       	.word	0x0000;	????	
  fe:	02 00       	.word	0x0002;	????	
 100:	a2 c1 06 00 	bic	@r1,	&0x0006	
 104:	00 00       	.word	0x0000;	????	
 106:	00 00       	.word	0x0000;	????	
 108:	10 00       	.word	0x0010;	????	
 10a:	00 00       	.word	0x0000;	????	
 10c:	02 00       	.word	0x0002;	????	
 10e:	4e 10       	rrc.b	r14		
 110:	00 00       	.word	0x0000;	????	
 112:	02 00       	.word	0x0002;	????	
 114:	32 ca       	bic	@r10+,	r2	
 116:	02 00       	.word	0x0002;	????	
 118:	00 00       	.word	0x0000;	????	
	...

Disassembly of section .debug_info:

00000000 <.debug_info>:
       0:	4b 04       	.word	0x044b;	????	
       2:	00 00       	.word	0x0000;	????	
       4:	02 00       	.word	0x0002;	????	
       6:	00 00       	.word	0x0000;	????	
       8:	00 00       	.word	0x0000;	????	
       a:	02 01       	.word	0x0102;	????	
       c:	8a 00       	.word	0x008a;	????	
       e:	00 00       	.word	0x0000;	????	
      10:	01 47       	mov	r7,	r1	
      12:	00 00       	.word	0x0000;	????	
      14:	00 90       	cmp	r0,	r0	
      16:	01 00       	.word	0x0001;	????	
	...
      24:	00 02       	.word	0x0200;	????	
      26:	02 07       	.word	0x0702;	????	
      28:	17 01       	.word	0x0117;	????	
      2a:	00 00       	.word	0x0000;	????	
      2c:	02 04       	.word	0x0402;	????	
      2e:	05 6f       	addc	r15,	r5	
      30:	00 00       	.word	0x0000;	????	
      32:	00 03       	.word	0x0300;	????	
      34:	02 05       	.word	0x0502;	????	
      36:	69 6e       	addc.b	@r14,	r9	
      38:	74 00       	.word	0x0074;	????	
      3a:	02 01       	.word	0x0102;	????	
      3c:	06 01       	.word	0x0106;	????	
      3e:	01 00       	.word	0x0001;	????	
      40:	00 02       	.word	0x0200;	????	
      42:	08 05       	.word	0x0508;	????	
      44:	6a 00       	.word	0x006a;	????	
      46:	00 00       	.word	0x0000;	????	
      48:	02 01       	.word	0x0102;	????	
      4a:	08 ff       	and	r15,	r8	
      4c:	00 00       	.word	0x0000;	????	
      4e:	00 02       	.word	0x0200;	????	
      50:	04 07       	.word	0x0704;	????	
      52:	12 01       	.word	0x0112;	????	
      54:	00 00       	.word	0x0000;	????	
      56:	02 08       	.word	0x0802;	????	
      58:	07 0d       	.word	0x0d07;	????	
      5a:	01 00       	.word	0x0001;	????	
      5c:	00 02       	.word	0x0200;	????	
      5e:	02 07       	.word	0x0702;	????	
      60:	5e 01       	.word	0x015e;	????	
      62:	00 00       	.word	0x0000;	????	
      64:	04 02       	.word	0x0204;	????	
      66:	6a 00       	.word	0x006a;	????	
      68:	00 00       	.word	0x0000;	????	
      6a:	02 01       	.word	0x0102;	????	
      6c:	06 08       	.word	0x0806;	????	
      6e:	01 00       	.word	0x0001;	????	
      70:	00 04       	.word	0x0400;	????	
      72:	02 77       	subc	r7,	r2	
      74:	00 00       	.word	0x0000;	????	
      76:	00 05       	.word	0x0500;	????	
      78:	6a 00       	.word	0x006a;	????	
      7a:	00 00       	.word	0x0000;	????	
      7c:	06 10       	rrc	r6		
      7e:	02 3d       	jmp	$+518    	;abs 0x284
      80:	93 00       	.word	0x0093;	????	
      82:	00 00       	.word	0x0000;	????	
      84:	07 76       	subc	r6,	r7	
      86:	61 6c       	addc.b	@r12,	r1	
      88:	00 02       	.word	0x0200;	????	
      8a:	41 93       	tst.b	r1		
      8c:	00 00       	.word	0x0000;	????	
      8e:	00 02       	.word	0x0200;	????	
      90:	23 00       	.word	0x0023;	????	
      92:	00 08       	.word	0x0800;	????	
      94:	6a 00       	.word	0x006a;	????	
      96:	00 00       	.word	0x0000;	????	
      98:	a3 00       	.word	0x00a3;	????	
      9a:	00 00       	.word	0x0000;	????	
      9c:	09 25       	jz	$+532    	;abs 0x2b0
      9e:	00 00       	.word	0x0000;	????	
      a0:	00 0e       	.word	0x0e00;	????	
      a2:	00 0a       	.word	0x0a00;	????	
      a4:	4f 00       	.word	0x004f;	????	
      a6:	00 00       	.word	0x0000;	????	
      a8:	02 42       	mov	r2,	r2	
      aa:	7c 00       	.word	0x007c;	????	
      ac:	00 00       	.word	0x0000;	????	
      ae:	06 52       	add	r2,	r6	
      b0:	02 47       	mov	r7,	r2	
      b2:	d3 00       	.word	0x00d3;	????	
      b4:	00 00       	.word	0x0000;	????	
      b6:	0b c8       	bic	r8,	r11	
      b8:	01 00       	.word	0x0001;	????	
      ba:	00 02       	.word	0x0200;	????	
      bc:	4b 48       	mov.b	r8,	r11	
      be:	00 00       	.word	0x0000;	????	
      c0:	00 02       	.word	0x0200;	????	
      c2:	23 00       	.word	0x0023;	????	
      c4:	0b 4a       	mov	r10,	r11	
      c6:	01 00       	.word	0x0001;	????	
      c8:	00 02       	.word	0x0200;	????	
      ca:	50 d3       	bis.b	#1,	r0	;r3 As==01
      cc:	00 00       	.word	0x0000;	????	
      ce:	00 02       	.word	0x0200;	????	
      d0:	23 02       	.word	0x0223;	????	
      d2:	00 08       	.word	0x0800;	????	
      d4:	a3 00       	.word	0x00a3;	????	
      d6:	00 00       	.word	0x0000;	????	
      d8:	e3 00       	.word	0x00e3;	????	
      da:	00 00       	.word	0x0000;	????	
      dc:	09 25       	jz	$+532    	;abs 0x2f0
      de:	00 00       	.word	0x0000;	????	
      e0:	00 04       	.word	0x0400;	????	
      e2:	00 0a       	.word	0x0a00;	????	
      e4:	40 01       	.word	0x0140;	????	
      e6:	00 00       	.word	0x0000;	????	
      e8:	02 51       	add	r1,	r2	
      ea:	ae 00       	.word	0x00ae;	????	
      ec:	00 00       	.word	0x0000;	????	
      ee:	06 06       	.word	0x0606;	????	
      f0:	02 56       	add	r6,	r2	
      f2:	21 01       	.word	0x0121;	????	
      f4:	00 00       	.word	0x0000;	????	
      f6:	07 63       	adc	r7		
      f8:	6d 64       	addc.b	@r4,	r13	
      fa:	00 02       	.word	0x0200;	????	
      fc:	5a 71 00 00 	subc.b	0(r1),	r10	;0x0000(r1)
     100:	00 02       	.word	0x0200;	????	
     102:	23 00       	.word	0x0023;	????	
     104:	0b 3b       	jl	$-488    	;abs 0xff1c
     106:	01 00       	.word	0x0001;	????	
     108:	00 02       	.word	0x0200;	????	
     10a:	5f 71 00 00 	subc.b	0(r1),	r15	;0x0000(r1)
     10e:	00 02       	.word	0x0200;	????	
     110:	23 02       	.word	0x0223;	????	
     112:	0b 65       	addc	r5,	r11	
     114:	00 00       	.word	0x0000;	????	
     116:	00 02       	.word	0x0200;	????	
     118:	64 37       	jge	$-310    	;abs 0xffe2
     11a:	01 00       	.word	0x0001;	????	
     11c:	00 02       	.word	0x0200;	????	
     11e:	23 04       	.word	0x0423;	????	
     120:	00 0c       	.word	0x0c00;	????	
     122:	01 33       	jn	$-508    	;abs 0xff26
     124:	00 00       	.word	0x0000;	????	
     126:	00 31       	jn	$+514    	;abs 0x328
     128:	01 00       	.word	0x0001;	????	
     12a:	00 0d       	.word	0x0d00;	????	
     12c:	31 01       	.word	0x0131;	????	
     12e:	00 00       	.word	0x0000;	????	
     130:	00 04       	.word	0x0400;	????	
     132:	02 e3       	xor	#0,	r2	;r3 As==00
     134:	00 00       	.word	0x0000;	????	
     136:	00 04       	.word	0x0400;	????	
     138:	02 21       	jnz	$+518    	;abs 0x33e
     13a:	01 00       	.word	0x0001;	????	
     13c:	00 0a       	.word	0x0a00;	????	
     13e:	16 00       	.word	0x0016;	????	
     140:	00 00       	.word	0x0000;	????	
     142:	02 65       	addc	r5,	r2	
     144:	ee 00       	.word	0x00ee;	????	
     146:	00 00       	.word	0x0000;	????	
     148:	06 02       	.word	0x0206;	????	
     14a:	02 6a       	addc	r10,	r2	
     14c:	6d 01       	.word	0x016d;	????	
     14e:	00 00       	.word	0x0000;	????	
     150:	0b c8       	bic	r8,	r11	
     152:	01 00       	.word	0x0001;	????	
     154:	00 02       	.word	0x0200;	????	
     156:	6e 48       	mov.b	@r8,	r14	
     158:	00 00       	.word	0x0000;	????	
     15a:	00 02       	.word	0x0200;	????	
     15c:	23 00       	.word	0x0023;	????	
     15e:	0b 7a       	subc	r10,	r11	
     160:	01 00       	.word	0x0001;	????	
     162:	00 02       	.word	0x0200;	????	
     164:	73 6d       	.word	0x6d73;	????	Illegal as 2-op instr
     166:	01 00       	.word	0x0001;	????	
     168:	00 02       	.word	0x0200;	????	
     16a:	23 02       	.word	0x0223;	????	
     16c:	00 08       	.word	0x0800;	????	
     16e:	3d 01       	.word	0x013d;	????	
     170:	00 00       	.word	0x0000;	????	
     172:	7c 01       	.word	0x017c;	????	
     174:	00 00       	.word	0x0000;	????	
     176:	0e 25       	jz	$+542    	;abs 0x394
     178:	00 00       	.word	0x0000;	????	
     17a:	00 00       	.word	0x0000;	????	
     17c:	0a 74       	subc	r4,	r10	
     17e:	01 00       	.word	0x0001;	????	
     180:	00 02       	.word	0x0200;	????	
     182:	74 48       	mov.b	@r8+,	r4	
     184:	01 00       	.word	0x0001;	????	
     186:	00 0f       	.word	0x0f00;	????	
     188:	01 38       	jl	$+4      	;abs 0x18c
     18a:	00 00       	.word	0x0000;	????	
     18c:	00 01       	.word	0x0100;	????	
     18e:	41 01       	.word	0x0141;	????	
     190:	33 00       	.word	0x0033;	????	
     192:	00 00       	.word	0x0000;	????	
     194:	ac c1 fe c1 	bic	@r1,	-15874(r12);0xc1fe(r12)
     198:	00 00       	.word	0x0000;	????	
     19a:	00 00       	.word	0x0000;	????	
     19c:	bb 01       	.word	0x01bb;	????	
     19e:	00 00       	.word	0x0000;	????	
     1a0:	10 4a 01 00 	br	1(r10)		;0x0001(r10)
     1a4:	00 01       	.word	0x0100;	????	
     1a6:	41 31       	jn	$+644    	;abs 0x42a
     1a8:	01 00       	.word	0x0001;	????	
     1aa:	00 02       	.word	0x0200;	????	
     1ac:	91 7c 11 6b 	subc	27409(r12),256(r1)	;0x6b11(r12), 0x0100(r1)
     1b0:	00 01 
     1b2:	43 33       	jn	$-376    	;abs 0x3a
     1b4:	00 00       	.word	0x0000;	????	
     1b6:	00 02       	.word	0x0200;	????	
     1b8:	91 7a 00 0f 	subc	3840(r10),20225(r1);0x0f00(r10), 0x4f01(r1)
     1bc:	01 4f 
     1be:	01 00       	.word	0x0001;	????	
     1c0:	00 01       	.word	0x0100;	????	
     1c2:	4c 01       	.word	0x014c;	????	
     1c4:	33 00       	.word	0x0033;	????	
     1c6:	00 00       	.word	0x0000;	????	
     1c8:	fe c1 46 c2 	bic.b	@r1+,	-15802(r14);0xc246(r14)
     1cc:	34 00       	.word	0x0034;	????	
     1ce:	00 00       	.word	0x0000;	????	
     1d0:	ef 01       	.word	0x01ef;	????	
     1d2:	00 00       	.word	0x0000;	????	
     1d4:	10 4a 01 00 	br	1(r10)		;0x0001(r10)
     1d8:	00 01       	.word	0x0100;	????	
     1da:	4c 31       	jn	$+666    	;abs 0x474
     1dc:	01 00       	.word	0x0001;	????	
     1de:	00 02       	.word	0x0200;	????	
     1e0:	91 7c 11 6b 	subc	27409(r12),256(r1)	;0x6b11(r12), 0x0100(r1)
     1e4:	00 01 
     1e6:	4e 33       	jn	$-354    	;abs 0x84
     1e8:	00 00       	.word	0x0000;	????	
     1ea:	00 02       	.word	0x0200;	????	
     1ec:	91 7a 00 0f 	subc	3840(r10),-14591(r1);0x0f00(r10), 0xc701(r1)
     1f0:	01 c7 
     1f2:	00 00       	.word	0x0000;	????	
     1f4:	00 01       	.word	0x0100;	????	
     1f6:	59 01       	.word	0x0159;	????	
     1f8:	33 00       	.word	0x0033;	????	
     1fa:	00 00       	.word	0x0000;	????	
     1fc:	46 c2       	bic.b	r2,	r6	
     1fe:	5a c2 60 00 	bic.b	&0x0060,r10	
     202:	00 00       	.word	0x0000;	????	
     204:	17 02       	.word	0x0217;	????	
     206:	00 00       	.word	0x0000;	????	
     208:	10 4a 01 00 	br	1(r10)		;0x0001(r10)
     20c:	00 01       	.word	0x0100;	????	
     20e:	59 31       	jn	$+692    	;abs 0x4c2
     210:	01 00       	.word	0x0001;	????	
     212:	00 02       	.word	0x0200;	????	
     214:	91 7c 00 0f 	subc	3840(r12),2049(r1);0x0f00(r12), 0x0801(r1)
     218:	01 08 
     21a:	00 00       	.word	0x0000;	????	
     21c:	00 02       	.word	0x0200;	????	
     21e:	ab 01       	.word	0x01ab;	????	
     220:	33 00       	.word	0x0033;	????	
     222:	00 00       	.word	0x0000;	????	
     224:	5a c2 6e c2 	bic.b	&0xc26e,r10	
     228:	74 00       	.word	0x0074;	????	
     22a:	00 00       	.word	0x0000;	????	
     22c:	3f 02       	.word	0x023f;	????	
     22e:	00 00       	.word	0x0000;	????	
     230:	10 2c       	jc	$+34     	;abs 0x252
     232:	01 00       	.word	0x0001;	????	
     234:	00 01       	.word	0x0100;	????	
     236:	60 64       	addc.b	@r4,	r0	
     238:	00 00       	.word	0x0000;	????	
     23a:	00 02       	.word	0x0200;	????	
     23c:	91 7c 00 0f 	subc	3840(r12),10241(r1);0x0f00(r12), 0x2801(r1)
     240:	01 28 
     242:	00 00       	.word	0x0000;	????	
     244:	00 01       	.word	0x0100;	????	
     246:	69 01       	.word	0x0169;	????	
     248:	33 00       	.word	0x0033;	????	
     24a:	00 00       	.word	0x0000;	????	
     24c:	3e c0 a2 c1 	bic	#-15966,r14	;#0xc1a2
     250:	88 00       	.word	0x0088;	????	
     252:	00 00       	.word	0x0000;	????	
     254:	88 02       	.word	0x0288;	????	
     256:	00 00       	.word	0x0000;	????	
     258:	12 c6 c0 a0 	bic	-24384(r6),r2	;0xa0c0(r6)
     25c:	c1 11       	.word	0x11c1;	????	
     25e:	6a 00       	.word	0x006a;	????	
     260:	01 89       	sub	r9,	r1	
     262:	33 00       	.word	0x0033;	????	
     264:	00 00       	.word	0x0000;	????	
     266:	03 91       	.word	0x9103;	????	Illegal as 2-op instr
     268:	a2 7f 13 2c 	subc	@r15,	&0x2c13	
     26c:	01 00       	.word	0x0001;	????	
     26e:	00 01       	.word	0x0100;	????	
     270:	8a 88 02 00 	sub	r8,	2(r10)	;0x0002(r10)
     274:	00 03       	.word	0x0300;	????	
     276:	91 a5 7f 11 	dadd	4479(r5),99(r1)	;0x117f(r5), 0x0063(r1)
     27a:	63 00 
     27c:	01 8d       	sub	r13,	r1	
     27e:	6a 00       	.word	0x006a;	????	
     280:	00 00       	.word	0x0000;	????	
     282:	03 91       	.word	0x9103;	????	Illegal as 2-op instr
     284:	a4 7f 00 00 	subc	@r15,	0(r4)	;0x0000(r4)
     288:	08 6a       	addc	r10,	r8	
     28a:	00 00       	.word	0x0000;	????	
     28c:	00 98       	cmp	r8,	r0	
     28e:	02 00       	.word	0x0002;	????	
     290:	00 09       	.word	0x0900;	????	
     292:	25 00       	.word	0x0025;	????	
     294:	00 00       	.word	0x0000;	????	
     296:	59 00       	.word	0x0059;	????	
     298:	14 01       	.word	0x0114;	????	
     29a:	d8 01       	.word	0x01d8;	????	
     29c:	00 00       	.word	0x0000;	????	
     29e:	01 b9       	bit	r9,	r1	
     2a0:	01 6e       	addc	r14,	r1	
     2a2:	c2 c8 c3 9d 	bic.b	r8,	&0x9dc3	
     2a6:	00 00       	.word	0x0000;	????	
     2a8:	00 15       	.word	0x1500;	????	
     2aa:	01 de       	bis	r14,	r1	
     2ac:	00 00       	.word	0x0000;	????	
     2ae:	00 01       	.word	0x0100;	????	
     2b0:	ef 01       	.word	0x01ef;	????	
     2b2:	c8 c3 d2 c3 	bic.b	#0,	-15406(r8);r3 As==00, 0xc3d2(r8)
     2b6:	02 71       	subc	r1,	r2	
     2b8:	00 08       	.word	0x0800;	????	
     2ba:	6a 00       	.word	0x006a;	????	
     2bc:	00 00       	.word	0x0000;	????	
     2be:	c9 02       	.word	0x02c9;	????	
     2c0:	00 00       	.word	0x0000;	????	
     2c2:	09 25       	jz	$+532    	;abs 0x4d6
     2c4:	00 00       	.word	0x0000;	????	
     2c6:	00 0f       	.word	0x0f00;	????	
     2c8:	00 11       	rra	r0		
     2ca:	68 65       	addc.b	@r5,	r8	
     2cc:	78 00       	.word	0x0078;	????	
     2ce:	01 19       	.word	0x1901;	????	
     2d0:	d8 02       	.word	0x02d8;	????	
     2d2:	00 00       	.word	0x0000;	????	
     2d4:	03 03       	.word	0x0303;	????	
     2d6:	34 ca       	bic	@r10+,	r4	
     2d8:	05 b9       	bit	r9,	r5	
     2da:	02 00       	.word	0x0002;	????	
     2dc:	00 16       	.word	0x1600;	????	
     2de:	7a 00       	.word	0x007a;	????	
     2e0:	00 00       	.word	0x0000;	????	
     2e2:	03 24       	jz	$+8      	;abs 0x2ea
     2e4:	01 78       	subc	r8,	r1	
     2e6:	00 00       	.word	0x0000;	????	
     2e8:	00 ef       	xor	r15,	r0	
     2ea:	02 00       	.word	0x0002;	????	
     2ec:	00 01       	.word	0x0100;	????	
     2ee:	01 17       	.word	0x1701;	????	
     2f0:	48 00       	.word	0x0048;	????	
     2f2:	00 00       	.word	0x0000;	????	
     2f4:	16 b9 01 00 	bit	1(r9),	r6	;0x0001(r9)
     2f8:	00 03       	.word	0x0300;	????	
     2fa:	26 01       	.word	0x0126;	????	
     2fc:	b7 01       	.word	0x01b7;	????	
     2fe:	00 00       	.word	0x0000;	????	
     300:	ef 02       	.word	0x02ef;	????	
     302:	00 00       	.word	0x0000;	????	
     304:	01 01       	.word	0x0101;	????	
     306:	16 02       	.word	0x0216;	????	
     308:	00 00       	.word	0x0000;	????	
     30a:	00 03       	.word	0x0300;	????	
     30c:	da 01       	.word	0x01da;	????	
     30e:	00 00       	.word	0x0000;	????	
     310:	00 00       	.word	0x0000;	????	
     312:	ef 02       	.word	0x02ef;	????	
     314:	00 00       	.word	0x0000;	????	
     316:	01 01       	.word	0x0101;	????	
     318:	16 22       	jnz	$-978    	;abs 0xff46
     31a:	00 00       	.word	0x0000;	????	
     31c:	00 03       	.word	0x0300;	????	
     31e:	dc 01       	.word	0x01dc;	????	
     320:	20 00       	.word	0x0020;	????	
     322:	00 00       	.word	0x0000;	????	
     324:	ef 02       	.word	0x02ef;	????	
     326:	00 00       	.word	0x0000;	????	
     328:	01 01       	.word	0x0101;	????	
     32a:	16 81 01 00 	sub	1(r1),	r6	;0x0001(r1)
     32e:	00 03       	.word	0x0300;	????	
     330:	de 01       	.word	0x01de;	????	
     332:	7f 01       	.word	0x017f;	????	
     334:	00 00       	.word	0x0000;	????	
     336:	ef 02       	.word	0x02ef;	????	
     338:	00 00       	.word	0x0000;	????	
     33a:	01 01       	.word	0x0101;	????	
     33c:	16 eb 00 00 	xor	0(r11),	r6	;0x0000(r11)
     340:	00 03       	.word	0x0300;	????	
     342:	e0 01       	.word	0x01e0;	????	
     344:	e9 00       	.word	0x00e9;	????	
     346:	00 00       	.word	0x0000;	????	
     348:	ef 02       	.word	0x02ef;	????	
     34a:	00 00       	.word	0x0000;	????	
     34c:	01 01       	.word	0x0101;	????	
     34e:	16 c3       	bic	#1,	r6	;r3 As==01
     350:	01 00       	.word	0x0001;	????	
     352:	00 03       	.word	0x0300;	????	
     354:	e2 01       	.word	0x01e2;	????	
     356:	c1 01       	.word	0x01c1;	????	
     358:	00 00       	.word	0x0000;	????	
     35a:	ef 02       	.word	0x02ef;	????	
     35c:	00 00       	.word	0x0000;	????	
     35e:	01 01       	.word	0x0101;	????	
     360:	16 d8 00 00 	bis	0(r8),	r6	;0x0000(r8)
     364:	00 03       	.word	0x0300;	????	
     366:	e8 01       	.word	0x01e8;	????	
     368:	d6 00       	.word	0x00d6;	????	
     36a:	00 00       	.word	0x0000;	????	
     36c:	ef 02       	.word	0x02ef;	????	
     36e:	00 00       	.word	0x0000;	????	
     370:	01 01       	.word	0x0101;	????	
     372:	16 5f 00 00 	add	0(r15),	r6	;0x0000(r15)
     376:	00 03       	.word	0x0300;	????	
     378:	ed 01       	.word	0x01ed;	????	
     37a:	5d 00       	.word	0x005d;	????	
     37c:	00 00       	.word	0x0000;	????	
     37e:	ef 02       	.word	0x02ef;	????	
     380:	00 00       	.word	0x0000;	????	
     382:	01 01       	.word	0x0101;	????	
     384:	16 c1 00 00 	bic	0(r1),	r6	;0x0000(r1)
     388:	00 03       	.word	0x0300;	????	
     38a:	ef 01       	.word	0x01ef;	????	
     38c:	bf 00       	.word	0x00bf;	????	
     38e:	00 00       	.word	0x0000;	????	
     390:	ef 02       	.word	0x02ef;	????	
     392:	00 00       	.word	0x0000;	????	
     394:	01 01       	.word	0x0101;	????	
     396:	16 26       	jz	$-978    	;abs 0xffc4
     398:	01 00       	.word	0x0001;	????	
     39a:	00 03       	.word	0x0300;	????	
     39c:	f7 01       	.word	0x01f7;	????	
     39e:	24 01       	.word	0x0124;	????	
     3a0:	00 00       	.word	0x0000;	????	
     3a2:	ef 02       	.word	0x02ef;	????	
     3a4:	00 00       	.word	0x0000;	????	
     3a6:	01 01       	.word	0x0101;	????	
     3a8:	16 89 01 00 	sub	1(r9),	r6	;0x0001(r9)
     3ac:	00 03       	.word	0x0300;	????	
     3ae:	17 02       	.word	0x0217;	????	
     3b0:	87 01       	.word	0x0187;	????	
     3b2:	00 00       	.word	0x0000;	????	
     3b4:	ba 03       	.word	0x03ba;	????	
     3b6:	00 00       	.word	0x0000;	????	
     3b8:	01 01       	.word	0x0101;	????	
     3ba:	17 25       	jz	$+560    	;abs 0x5ea
     3bc:	00 00       	.word	0x0000;	????	
     3be:	00 16       	.word	0x1600;	????	
     3c0:	2f 00       	.word	0x002f;	????	
     3c2:	00 00       	.word	0x0000;	????	
     3c4:	03 19       	.word	0x1903;	????	
     3c6:	02 2d       	jc	$+518    	;abs 0x5cc
     3c8:	00 00       	.word	0x0000;	????	
     3ca:	00 ba       	bit	r10,	r0	
     3cc:	03 00       	.word	0x0003;	????	
     3ce:	00 01       	.word	0x0100;	????	
     3d0:	01 16       	.word	0x1601;	????	
     3d2:	d0 01       	.word	0x01d0;	????	
     3d4:	00 00       	.word	0x0000;	????	
     3d6:	03 21       	jnz	$+520    	;abs 0x5de
     3d8:	02 ce       	bic	r14,	r2	
     3da:	01 00       	.word	0x0001;	????	
     3dc:	00 ba       	bit	r10,	r0	
     3de:	03 00       	.word	0x0003;	????	
     3e0:	00 01       	.word	0x0100;	????	
     3e2:	01 16       	.word	0x1601;	????	
     3e4:	83 00       	.word	0x0083;	????	
     3e6:	00 00       	.word	0x0000;	????	
     3e8:	03 8a       	.word	0x8a03;	????	Illegal as 2-op instr
     3ea:	03 81       	.word	0x8103;	????	Illegal as 2-op instr
     3ec:	00 00       	.word	0x0000;	????	
     3ee:	00 ba       	bit	r10,	r0	
     3f0:	03 00       	.word	0x0003;	????	
     3f2:	00 01       	.word	0x0100;	????	
     3f4:	01 16       	.word	0x1601;	????	
     3f6:	f3 00       	.word	0x00f3;	????	
     3f8:	00 00       	.word	0x0000;	????	
     3fa:	03 c6       	.word	0xc603;	????	Illegal as 2-op instr
     3fc:	03 f1       	.word	0xf103;	????	Illegal as 2-op instr
     3fe:	00 00       	.word	0x0000;	????	
     400:	00 07       	.word	0x0700;	????	
     402:	04 00       	.word	0x0004;	????	
     404:	00 01       	.word	0x0100;	????	
     406:	01 05       	.word	0x0501;	????	
     408:	ef 02       	.word	0x02ef;	????	
     40a:	00 00       	.word	0x0000;	????	
     40c:	16 ee 01 00 	xor	1(r14),	r6	;0x0001(r14)
     410:	00 03       	.word	0x0300;	????	
     412:	c8 03       	.word	0x03c8;	????	
     414:	ec 01       	.word	0x01ec;	????	
     416:	00 00       	.word	0x0000;	????	
     418:	07 04       	.word	0x0407;	????	
     41a:	00 00       	.word	0x0000;	????	
     41c:	01 01       	.word	0x0101;	????	
     41e:	18 e6 01 00 	xor	1(r6),	r8	;0x0001(r6)
     422:	00 01       	.word	0x0100;	????	
     424:	17 33       	jn	$-464    	;abs 0x254
     426:	00 00       	.word	0x0000;	????	
     428:	00 01       	.word	0x0100;	????	
     42a:	03 03       	.word	0x0303;	????	
     42c:	14 02       	.word	0x0214;	????	
     42e:	18 35       	jge	$+562    	;abs 0x660
     430:	01 00       	.word	0x0001;	????	
     432:	00 01       	.word	0x0100;	????	
     434:	18 64 00 00 	addc	0(r4),	r8	;0x0000(r4)
     438:	00 01       	.word	0x0100;	????	
     43a:	03 03       	.word	0x0303;	????	
     43c:	16 02       	.word	0x0216;	????	
     43e:	18 71 01 00 	subc	1(r1),	r8	;0x0001(r1)
     442:	00 01       	.word	0x0100;	????	
     444:	28 7c       	subc	@r12,	r8	
     446:	01 00       	.word	0x0001;	????	
     448:	00 01       	.word	0x0100;	????	
     44a:	03 03       	.word	0x0303;	????	
     44c:	00 02       	.word	0x0200;	????	
     44e:	00 3b       	jl	$-510    	;abs 0x250
     450:	03 00       	.word	0x0003;	????	
     452:	00 02       	.word	0x0200;	????	
     454:	00 44       	br	r4		
     456:	01 00       	.word	0x0001;	????	
     458:	00 02       	.word	0x0200;	????	
     45a:	01 8a       	sub	r10,	r1	
     45c:	00 00       	.word	0x0000;	????	
     45e:	00 01       	.word	0x0100;	????	
     460:	47 00       	.word	0x0047;	????	
     462:	00 00       	.word	0x0000;	????	
     464:	fa 01       	.word	0x01fa;	????	
     466:	00 00       	.word	0x0000;	????	
     468:	d2 c3 94 c5 	bic.b	#1,	&0xc594	;r3 As==01
     46c:	d6 01       	.word	0x01d6;	????	
     46e:	00 00       	.word	0x0000;	????	
     470:	02 10       	rrc	r2		
     472:	02 3d       	jmp	$+518    	;abs 0x678
     474:	38 00       	.word	0x0038;	????	
     476:	00 00       	.word	0x0000;	????	
     478:	03 76       	.word	0x7603;	????	Illegal as 2-op instr
     47a:	61 6c       	addc.b	@r12,	r1	
     47c:	00 02       	.word	0x0200;	????	
     47e:	41 38       	jl	$+132    	;abs 0x502
     480:	00 00       	.word	0x0000;	????	
     482:	00 02       	.word	0x0200;	????	
     484:	23 00       	.word	0x0023;	????	
     486:	00 04       	.word	0x0400;	????	
     488:	4f 00       	.word	0x004f;	????	
     48a:	00 00       	.word	0x0000;	????	
     48c:	48 00       	.word	0x0048;	????	
     48e:	00 00       	.word	0x0000;	????	
     490:	05 48       	mov	r8,	r5	
     492:	00 00       	.word	0x0000;	????	
     494:	00 0e       	.word	0x0e00;	????	
     496:	00 06       	.word	0x0600;	????	
     498:	02 07       	.word	0x0702;	????	
     49a:	17 01       	.word	0x0117;	????	
     49c:	00 00       	.word	0x0000;	????	
     49e:	06 01       	.word	0x0106;	????	
     4a0:	06 08       	.word	0x0806;	????	
     4a2:	01 00       	.word	0x0001;	????	
     4a4:	00 07       	.word	0x0700;	????	
     4a6:	4f 00       	.word	0x004f;	????	
     4a8:	00 00       	.word	0x0000;	????	
     4aa:	02 42       	mov	r2,	r2	
     4ac:	21 00       	.word	0x0021;	????	
     4ae:	00 00       	.word	0x0000;	????	
     4b0:	02 52       	rla	r2		
     4b2:	02 47       	mov	r7,	r2	
     4b4:	86 00       	.word	0x0086;	????	
     4b6:	00 00       	.word	0x0000;	????	
     4b8:	08 c8       	bic	r8,	r8	
     4ba:	01 00       	.word	0x0001;	????	
     4bc:	00 02       	.word	0x0200;	????	
     4be:	4b 86       	sub.b	r6,	r11	
     4c0:	00 00       	.word	0x0000;	????	
     4c2:	00 02       	.word	0x0200;	????	
     4c4:	23 00       	.word	0x0023;	????	
     4c6:	08 4a       	mov	r10,	r8	
     4c8:	01 00       	.word	0x0001;	????	
     4ca:	00 02       	.word	0x0200;	????	
     4cc:	50 8d 00 00 	sub.b	0(r13),	r0	;0x0000(r13)
     4d0:	00 02       	.word	0x0200;	????	
     4d2:	23 02       	.word	0x0223;	????	
     4d4:	00 06       	.word	0x0600;	????	
     4d6:	01 08       	.word	0x0801;	????	
     4d8:	ff 00       	.word	0x00ff;	????	
     4da:	00 00       	.word	0x0000;	????	
     4dc:	04 56       	add	r6,	r4	
     4de:	00 00       	.word	0x0000;	????	
     4e0:	00 9d       	cmp	r13,	r0	
     4e2:	00 00       	.word	0x0000;	????	
     4e4:	00 05       	.word	0x0500;	????	
     4e6:	48 00       	.word	0x0048;	????	
     4e8:	00 00       	.word	0x0000;	????	
     4ea:	04 00       	.word	0x0004;	????	
     4ec:	07 40       	mov	r0,	r7	
     4ee:	01 00       	.word	0x0001;	????	
     4f0:	00 02       	.word	0x0200;	????	
     4f2:	51 61 00 00 	addc.b	0(r1),	r1	;0x0000(r1)
     4f6:	00 02       	.word	0x0200;	????	
     4f8:	06 02       	.word	0x0206;	????	
     4fa:	56 db 00 00 	bis.b	0(r11),	r6	;0x0000(r11)
     4fe:	00 03       	.word	0x0300;	????	
     500:	63 6d       	.word	0x6d63;	????	Illegal as 2-op instr
     502:	64 00       	.word	0x0064;	????	
     504:	02 5a       	add	r10,	r2	
     506:	db 00       	.word	0x00db;	????	
     508:	00 00       	.word	0x0000;	????	
     50a:	02 23       	jnz	$-506    	;abs 0x310
     50c:	00 08       	.word	0x0800;	????	
     50e:	3b 01       	.word	0x013b;	????	
     510:	00 00       	.word	0x0000;	????	
     512:	02 5f       	add	r15,	r2	
     514:	db 00       	.word	0x00db;	????	
     516:	00 00       	.word	0x0000;	????	
     518:	02 23       	jnz	$-506    	;abs 0x31e
     51a:	02 08       	.word	0x0802;	????	
     51c:	65 00       	.word	0x0065;	????	
     51e:	00 00       	.word	0x0000;	????	
     520:	02 64       	addc	r4,	r2	
     522:	03 01       	.word	0x0103;	????	
     524:	00 00       	.word	0x0000;	????	
     526:	02 23       	jnz	$-506    	;abs 0x32c
     528:	04 00       	.word	0x0004;	????	
     52a:	09 02       	.word	0x0209;	????	
     52c:	e1 00       	.word	0x00e1;	????	
     52e:	00 00       	.word	0x0000;	????	
     530:	0a 4f       	mov	r15,	r10	
     532:	00 00       	.word	0x0000;	????	
     534:	00 0b       	.word	0x0b00;	????	
     536:	01 f6       	and	r6,	r1	
     538:	00 00       	.word	0x0000;	????	
     53a:	00 f6       	and	r6,	r0	
     53c:	00 00       	.word	0x0000;	????	
     53e:	00 0c       	.word	0x0c00;	????	
     540:	fd 00       	.word	0x00fd;	????	
     542:	00 00       	.word	0x0000;	????	
     544:	00 0d       	.word	0x0d00;	????	
     546:	02 05       	.word	0x0502;	????	
     548:	69 6e       	addc.b	@r14,	r9	
     54a:	74 00       	.word	0x0074;	????	
     54c:	09 02       	.word	0x0209;	????	
     54e:	9d 00       	.word	0x009d;	????	
     550:	00 00       	.word	0x0000;	????	
     552:	09 02       	.word	0x0209;	????	
     554:	e6 00       	.word	0x00e6;	????	
     556:	00 00       	.word	0x0000;	????	
     558:	07 16       	.word	0x1607;	????	
     55a:	00 00       	.word	0x0000;	????	
     55c:	00 02       	.word	0x0200;	????	
     55e:	65 a8       	dadd.b	@r8,	r5	
     560:	00 00       	.word	0x0000;	????	
     562:	00 02       	.word	0x0200;	????	
     564:	02 02       	.word	0x0202;	????	
     566:	6a 39       	jl	$+726    	;abs 0x83c
     568:	01 00       	.word	0x0001;	????	
     56a:	00 08       	.word	0x0800;	????	
     56c:	c8 01       	.word	0x01c8;	????	
     56e:	00 00       	.word	0x0000;	????	
     570:	02 6e       	addc	r14,	r2	
     572:	86 00       	.word	0x0086;	????	
     574:	00 00       	.word	0x0000;	????	
     576:	02 23       	jnz	$-506    	;abs 0x37c
     578:	00 08       	.word	0x0800;	????	
     57a:	7a 01       	.word	0x017a;	????	
     57c:	00 00       	.word	0x0000;	????	
     57e:	02 73       	sbc	r2		
     580:	39 01       	.word	0x0139;	????	
     582:	00 00       	.word	0x0000;	????	
     584:	02 23       	jnz	$-506    	;abs 0x38a
     586:	02 00       	.word	0x0002;	????	
     588:	04 09       	.word	0x0904;	????	
     58a:	01 00       	.word	0x0001;	????	
     58c:	00 48       	br	r8		
     58e:	01 00       	.word	0x0001;	????	
     590:	00 0e       	.word	0x0e00;	????	
     592:	48 00       	.word	0x0048;	????	
     594:	00 00       	.word	0x0000;	????	
     596:	00 07       	.word	0x0700;	????	
     598:	74 01       	.word	0x0174;	????	
     59a:	00 00       	.word	0x0000;	????	
     59c:	02 74       	subc	r4,	r2	
     59e:	14 01       	.word	0x0114;	????	
     5a0:	00 00       	.word	0x0000;	????	
     5a2:	0f 01       	.word	0x010f;	????	
     5a4:	6c 02       	.word	0x026c;	????	
     5a6:	00 00       	.word	0x0000;	????	
     5a8:	01 16       	.word	0x1601;	????	
     5aa:	01 f6       	and	r6,	r1	
     5ac:	00 00       	.word	0x0000;	????	
     5ae:	00 d2       	bis	r2,	r0	
     5b0:	c3 ea       	xor.b	r10,	#1	;r3 As==01
     5b2:	c3 02       	.word	0x02c3;	????	
     5b4:	71 02       	.word	0x0271;	????	
     5b6:	88 01       	.word	0x0188;	????	
     5b8:	00 00       	.word	0x0000;	????	
     5ba:	10 73       	subc	#1,	r0	;r3 As==01
     5bc:	74 72       	subc.b	#8,	r4	;r2 As==11
     5be:	00 01       	.word	0x0100;	????	
     5c0:	16 88 01 00 	sub	1(r8),	r6	;0x0001(r8)
     5c4:	00 b1       	bit	r1,	r0	
     5c6:	00 00       	.word	0x0000;	????	
     5c8:	00 11       	rra	r0		
     5ca:	69 00       	.word	0x0069;	????	
     5cc:	01 18       	.word	0x1801;	????	
     5ce:	f6 00       	.word	0x00f6;	????	
     5d0:	00 00       	.word	0x0000;	????	
     5d2:	c3 00       	.word	0x00c3;	????	
     5d4:	00 00       	.word	0x0000;	????	
     5d6:	00 09       	.word	0x0900;	????	
     5d8:	02 4f       	mov	r15,	r2	
     5da:	00 00       	.word	0x0000;	????	
     5dc:	00 12       	push	r0		
     5de:	01 47       	mov	r7,	r1	
     5e0:	02 00       	.word	0x0002;	????	
     5e2:	00 01       	.word	0x0100;	????	
     5e4:	1f 01       	.word	0x011f;	????	
     5e6:	f6 00       	.word	0x00f6;	????	
     5e8:	00 00       	.word	0x0000;	????	
     5ea:	ea c3 2e c4 	bic.b	#2,	-15314(r10);r3 As==10, 0xc42e(r10)
     5ee:	e4 00       	.word	0x00e4;	????	
     5f0:	00 00       	.word	0x0000;	????	
     5f2:	eb 01       	.word	0x01eb;	????	
     5f4:	00 00       	.word	0x0000;	????	
     5f6:	13 a7       	.word	0xa713;	????	Illegal as 2-op instr
     5f8:	02 00       	.word	0x0002;	????	
     5fa:	00 01       	.word	0x0100;	????	
     5fc:	1f 88 01 00 	sub	1(r8),	r15	;0x0001(r8)
     600:	00 08       	.word	0x0800;	????	
     602:	01 00       	.word	0x0001;	????	
     604:	00 14       	.word	0x1400;	????	
     606:	62 02       	.word	0x0262;	????	
     608:	00 00       	.word	0x0000;	????	
     60a:	01 1f       	.word	0x1f01;	????	
     60c:	88 01       	.word	0x0188;	????	
     60e:	00 00       	.word	0x0000;	????	
     610:	01 5e       	add	r14,	r1	
     612:	14 7a 02 00 	subc	2(r10),	r4	;0x0002(r10)
     616:	00 01       	.word	0x0100;	????	
     618:	1f f6 00 00 	and	0(r6),	r15	;0x0000(r6)
     61c:	00 01       	.word	0x0100;	????	
     61e:	5d 14       	.word	0x145d;	????	
     620:	7f 02       	.word	0x027f;	????	
     622:	00 00       	.word	0x0000;	????	
     624:	01 1f       	.word	0x1f01;	????	
     626:	f6 00       	.word	0x00f6;	????	
     628:	00 00       	.word	0x0000;	????	
     62a:	01 5c       	add	r12,	r1	
     62c:	11 69 00 01 	addc	256(r9),r1	;0x0100(r9)
     630:	21 f6       	and	@r6,	r1	
     632:	00 00       	.word	0x0000;	????	
     634:	00 21       	jnz	$+514    	;abs 0x836
     636:	01 00       	.word	0x0001;	????	
     638:	00 00       	.word	0x0000;	????	
     63a:	0f 01       	.word	0x010f;	????	
     63c:	97 02       	.word	0x0297;	????	
     63e:	00 00       	.word	0x0000;	????	
     640:	01 32       	jn	$-1020   	;abs 0x244
     642:	01 f6       	and	r6,	r1	
     644:	00 00       	.word	0x0000;	????	
     646:	00 2e       	jc	$-1022   	;abs 0x248
     648:	c4 5e c4 02 	add.b	r14,	708(r4)	;0x02c4(r4)
     64c:	71 02       	.word	0x0271;	????	
     64e:	3c 02       	.word	0x023c;	????	
     650:	00 00       	.word	0x0000;	????	
     652:	10 73       	subc	#1,	r0	;r3 As==01
     654:	74 72       	subc.b	#8,	r4	;r2 As==11
     656:	00 01       	.word	0x0100;	????	
     658:	32 88       	sub	@r8+,	r2	
     65a:	01 00       	.word	0x0001;	????	
     65c:	00 2c       	jc	$+2      	;abs 0x65e
     65e:	01 00       	.word	0x0001;	????	
     660:	00 11       	rra	r0		
     662:	76 61       	addc.b	@r1+,	r6	
     664:	6c 00       	.word	0x006c;	????	
     666:	01 35       	jge	$+516    	;abs 0x86a
     668:	f6 00       	.word	0x00f6;	????	
     66a:	00 00       	.word	0x0000;	????	
     66c:	37 01       	.word	0x0137;	????	
     66e:	00 00       	.word	0x0000;	????	
     670:	11 69 00 01 	addc	256(r9),r1	;0x0100(r9)
     674:	36 f6       	and	@r6+,	r6	
     676:	00 00       	.word	0x0000;	????	
     678:	00 51       	add	r1,	r0	
     67a:	01 00       	.word	0x0001;	????	
     67c:	00 11       	rra	r0		
     67e:	63 00       	.word	0x0063;	????	
     680:	01 38       	jl	$+4      	;abs 0x684
     682:	4f 00       	.word	0x004f;	????	
     684:	00 00       	.word	0x0000;	????	
     686:	5d 01       	.word	0x015d;	????	
     688:	00 00       	.word	0x0000;	????	
     68a:	00 12       	push	r0		
     68c:	01 29       	jnc	$+516    	;abs 0x890
     68e:	02 00       	.word	0x0002;	????	
     690:	00 01       	.word	0x0100;	????	
     692:	44 01       	.word	0x0144;	????	
     694:	f6 00       	.word	0x00f6;	????	
     696:	00 00       	.word	0x0000;	????	
     698:	5e c4 04 c5 	bic.b	-15100(r4),r14	;0xc504(r4)
     69c:	77 01       	.word	0x0177;	????	
     69e:	00 00       	.word	0x0000;	????	
     6a0:	b7 02       	.word	0x02b7;	????	
     6a2:	00 00       	.word	0x0000;	????	
     6a4:	13 2c       	jc	$+40     	;abs 0x6cc
     6a6:	01 00       	.word	0x0001;	????	
     6a8:	00 01       	.word	0x0100;	????	
     6aa:	44 88       	sub.b	r8,	r4	
     6ac:	01 00       	.word	0x0001;	????	
     6ae:	00 bb       	bit	r11,	r0	
     6b0:	01 00       	.word	0x0001;	????	
     6b2:	00 15       	.word	0x1500;	????	
     6b4:	6c 65       	addc.b	@r5,	r12	
     6b6:	6e 00       	.word	0x006e;	????	
     6b8:	01 44       	mov	r4,	r1	
     6ba:	f6 00       	.word	0x00f6;	????	
     6bc:	00 00       	.word	0x0000;	????	
     6be:	01 5e       	add	r14,	r1	
     6c0:	14 4a 01 00 	mov	1(r10),	r4	;0x0001(r10)
     6c4:	00 01       	.word	0x0100;	????	
     6c6:	44 fd       	and.b	r13,	r4	
     6c8:	00 00       	.word	0x0000;	????	
     6ca:	00 01       	.word	0x0100;	????	
     6cc:	5d 11 69 00 	rra.b	105(r13)	;0x0069(r13)
     6d0:	01 46       	mov	r6,	r1	
     6d2:	f6 00       	.word	0x00f6;	????	
     6d4:	00 00       	.word	0x0000;	????	
     6d6:	d4 01       	.word	0x01d4;	????	
     6d8:	00 00       	.word	0x0000;	????	
     6da:	11 6a 00 01 	addc	256(r10),r1	;0x0100(r10)
     6de:	47 f6       	and.b	r6,	r7	
     6e0:	00 00       	.word	0x0000;	????	
     6e2:	00 e7       	xor	r7,	r0	
     6e4:	01 00       	.word	0x0001;	????	
     6e6:	00 16       	.word	0x1600;	????	
     6e8:	55 02       	.word	0x0255;	????	
     6ea:	00 00       	.word	0x0000;	????	
     6ec:	01 48       	mov	r8,	r1	
     6ee:	f6 00       	.word	0x00f6;	????	
     6f0:	00 00       	.word	0x0000;	????	
     6f2:	f2 01       	.word	0x01f2;	????	
     6f4:	00 00       	.word	0x0000;	????	
     6f6:	16 67 02 00 	addc	2(r7),	r6	;0x0002(r7)
     6fa:	00 01       	.word	0x0100;	????	
     6fc:	49 f6       	and.b	r6,	r9	
     6fe:	00 00       	.word	0x0000;	????	
     700:	00 0c       	.word	0x0c00;	????	
     702:	02 00       	.word	0x0002;	????	
     704:	00 00       	.word	0x0000;	????	
     706:	12 01       	.word	0x0112;	????	
     708:	84 02       	.word	0x0284;	????	
     70a:	00 00       	.word	0x0000;	????	
     70c:	01 68       	addc	r8,	r1	
     70e:	01 f6       	and	r6,	r1	
     710:	00 00       	.word	0x0000;	????	
     712:	00 04       	.word	0x0400;	????	
     714:	c5 94 c5 1f 	cmp.b	r4,	8133(r5);0x1fc5(r5)
     718:	02 00       	.word	0x0002;	????	
     71a:	00 38       	jl	$+2      	;abs 0x71c
     71c:	03 00       	.word	0x0003;	????	
     71e:	00 13       	reti			
     720:	7a 01       	.word	0x017a;	????	
     722:	00 00       	.word	0x0000;	????	
     724:	01 68       	addc	r8,	r1	
     726:	38 03       	.word	0x0338;	????	
     728:	00 00       	.word	0x0000;	????	
     72a:	64 02       	.word	0x0264;	????	
     72c:	00 00       	.word	0x0000;	????	
     72e:	13 2c       	jc	$+40     	;abs 0x756
     730:	01 00       	.word	0x0001;	????	
     732:	00 01       	.word	0x0100;	????	
     734:	68 88       	sub.b	@r8,	r8	
     736:	01 00       	.word	0x0001;	????	
     738:	00 76       	subc	r6,	r0	
     73a:	02 00       	.word	0x0002;	????	
     73c:	00 11       	rra	r0		
     73e:	69 00       	.word	0x0069;	????	
     740:	01 6a       	addc	r10,	r1	
     742:	f6 00       	.word	0x00f6;	????	
     744:	00 00       	.word	0x0000;	????	
     746:	88 02       	.word	0x0288;	????	
     748:	00 00       	.word	0x0000;	????	
     74a:	11 72 65 74 	subc	&0x7465,r1	
     74e:	00 01       	.word	0x0100;	????	
     750:	6b f6       	and.b	@r6,	r11	
     752:	00 00       	.word	0x0000;	????	
     754:	00 9b       	cmp	r11,	r0	
     756:	02 00       	.word	0x0002;	????	
     758:	00 16       	.word	0x1600;	????	
     75a:	5a 02       	.word	0x025a;	????	
     75c:	00 00       	.word	0x0000;	????	
     75e:	01 6c       	addc	r12,	r1	
     760:	f6 00       	.word	0x00f6;	????	
     762:	00 00       	.word	0x0000;	????	
     764:	b4 02       	.word	0x02b4;	????	
     766:	00 00       	.word	0x0000;	????	
     768:	16 3a       	jl	$-978    	;abs 0x396
     76a:	02 00       	.word	0x0002;	????	
     76c:	00 01       	.word	0x0100;	????	
     76e:	6d f6       	and.b	@r6,	r13	
     770:	00 00       	.word	0x0000;	????	
     772:	00 c6       	bic	r6,	r0	
     774:	02 00       	.word	0x0002;	????	
     776:	00 17       	.word	0x1700;	????	
     778:	4a 01       	.word	0x014a;	????	
     77a:	00 00       	.word	0x0000;	????	
     77c:	01 6f       	addc	r15,	r1	
     77e:	9d 00       	.word	0x009d;	????	
     780:	00 00       	.word	0x0000;	????	
     782:	03 91       	.word	0x9103;	????	Illegal as 2-op instr
     784:	a0 7f 00 09 	subc	@r15,	2304(r0);PC rel. 0x1086
     788:	02 48       	mov	r8,	r2	
     78a:	01 00       	.word	0x0001;	????	
     78c:	00 00       	.word	0x0000;	????	
     78e:	50 02       	.word	0x0250;	????	
     790:	00 00       	.word	0x0000;	????	
     792:	02 00       	.word	0x0002;	????	
     794:	7c 02       	.word	0x027c;	????	
     796:	00 00       	.word	0x0000;	????	
     798:	02 01       	.word	0x0102;	????	
     79a:	8a 00       	.word	0x008a;	????	
     79c:	00 00       	.word	0x0000;	????	
     79e:	01 f8       	and	r8,	r1	
     7a0:	02 00       	.word	0x0002;	????	
     7a2:	00 20       	jnz	$+2      	;abs 0x7a4
     7a4:	03 00       	.word	0x0003;	????	
     7a6:	00 94       	cmp	r4,	r0	
     7a8:	c5 fe c7 d8 	and.b	r14,	-10041(r5);0xd8c7(r5)
     7ac:	02 00       	.word	0x0002;	????	
     7ae:	00 02       	.word	0x0200;	????	
     7b0:	11 03       	.word	0x0311;	????	
     7b2:	00 00       	.word	0x0000;	????	
     7b4:	02 28       	jnc	$+6      	;abs 0x7ba
     7b6:	2c 00       	.word	0x002c;	????	
     7b8:	00 00       	.word	0x0000;	????	
     7ba:	03 02       	.word	0x0203;	????	
     7bc:	c2 02       	.word	0x02c2;	????	
     7be:	00 00       	.word	0x0000;	????	
     7c0:	02 18       	.word	0x1802;	????	
     7c2:	03 00       	.word	0x0003;	????	
     7c4:	00 02       	.word	0x0200;	????	
     7c6:	66 21       	jnz	$+718    	;abs 0xa94
     7c8:	00 00       	.word	0x0000;	????	
     7ca:	00 04       	.word	0x0400;	????	
     7cc:	df 02       	.word	0x02df;	????	
     7ce:	00 00       	.word	0x0000;	????	
     7d0:	01 59       	add	r9,	r1	
     7d2:	01 94       	cmp	r4,	r1	
     7d4:	c5 fe c5 df 	and.b	r14,	-8251(r5);0xdfc5(r5)
     7d8:	02 00       	.word	0x0002;	????	
     7da:	00 87       	sub	r7,	r0	
     7dc:	00 00       	.word	0x0000;	????	
     7de:	00 05       	.word	0x0500;	????	
     7e0:	78 00       	.word	0x0078;	????	
     7e2:	01 59       	add	r9,	r1	
     7e4:	87 00       	.word	0x0087;	????	
     7e6:	00 00       	.word	0x0000;	????	
     7e8:	13 03       	.word	0x0313;	????	
     7ea:	00 00       	.word	0x0000;	????	
     7ec:	05 64       	addc	r4,	r5	
     7ee:	70 00       	.word	0x0070;	????	
     7f0:	01 59       	add	r9,	r1	
     7f2:	8e 00       	.word	0x008e;	????	
     7f4:	00 00       	.word	0x0000;	????	
     7f6:	2f 03       	.word	0x032f;	????	
     7f8:	00 00       	.word	0x0000;	????	
     7fa:	06 63       	adc	r6		
     7fc:	00 01       	.word	0x0100;	????	
     7fe:	5b 99 00 00 	cmp.b	0(r9),	r11	;0x0000(r9)
     802:	00 41       	br	r1		
     804:	03 00       	.word	0x0003;	????	
     806:	00 06       	.word	0x0600;	????	
     808:	64 00       	.word	0x0064;	????	
     80a:	01 5c       	add	r12,	r1	
     80c:	87 00       	.word	0x0087;	????	
     80e:	00 00       	.word	0x0000;	????	
     810:	55 03       	.word	0x0355;	????	
     812:	00 00       	.word	0x0000;	????	
     814:	00 07       	.word	0x0700;	????	
     816:	04 07       	.word	0x0704;	????	
     818:	12 01       	.word	0x0112;	????	
     81a:	00 00       	.word	0x0000;	????	
     81c:	08 02       	.word	0x0208;	????	
     81e:	94 00       	.word	0x0094;	????	
     820:	00 00       	.word	0x0000;	????	
     822:	09 87       	sub	r7,	r9	
     824:	00 00       	.word	0x0000;	????	
     826:	00 07       	.word	0x0700;	????	
     828:	01 06       	.word	0x0601;	????	
     82a:	08 01       	.word	0x0108;	????	
     82c:	00 00       	.word	0x0000;	????	
     82e:	0a f2       	and	r2,	r10	
     830:	02 00       	.word	0x0002;	????	
     832:	00 01       	.word	0x0100;	????	
     834:	53 01       	.word	0x0153;	????	
     836:	fe c5 0c c6 	bic.b	@r5+,	-14836(r14);0xc60c(r14)
     83a:	02 71       	subc	r1,	r2	
     83c:	02 d0       	bis	r0,	r2	
     83e:	00 00       	.word	0x0000;	????	
     840:	00 05       	.word	0x0500;	????	
     842:	6e 00       	.word	0x006e;	????	
     844:	01 53       	add	#0,	r1	;r3 As==00
     846:	d0 00       	.word	0x00d0;	????	
     848:	00 00       	.word	0x0000;	????	
     84a:	6d 03       	.word	0x036d;	????	
     84c:	00 00       	.word	0x0000;	????	
     84e:	0b 68       	addc	r8,	r11	
     850:	65 78       	subc.b	@r8,	r5	
     852:	00 01       	.word	0x0100;	????	
     854:	55 e7 00 00 	xor.b	0(r7),	r5	;0x0000(r7)
     858:	00 03       	.word	0x0300;	????	
     85a:	03 70       	.word	0x7003;	????	Illegal as 2-op instr
     85c:	cb 00       	.word	0x00cb;	????	
     85e:	07 02       	.word	0x0207;	????	
     860:	07 17       	.word	0x1707;	????	
     862:	01 00       	.word	0x0001;	????	
     864:	00 0c       	.word	0x0c00;	????	
     866:	99 00       	.word	0x0099;	????	
     868:	00 00       	.word	0x0000;	????	
     86a:	e7 00       	.word	0x00e7;	????	
     86c:	00 00       	.word	0x0000;	????	
     86e:	0d d0       	bis	r0,	r13	
     870:	00 00       	.word	0x0000;	????	
     872:	00 0f       	.word	0x0f00;	????	
     874:	00 09       	.word	0x0900;	????	
     876:	d7 00       	.word	0x00d7;	????	
     878:	00 00       	.word	0x0000;	????	
     87a:	0e 01       	.word	0x010e;	????	
     87c:	07 03       	.word	0x0307;	????	
     87e:	00 00       	.word	0x0000;	????	
     880:	01 18       	.word	0x1801;	????	
     882:	01 0c       	.word	0x0c01;	????	
     884:	c6 20       	jnz	$+398    	;abs 0xa12
     886:	c6 78 03 00 	subc.b	r8,	3(r6)	;0x0003(r6)
     88a:	00 1e       	.word	0x1e00;	????	
     88c:	01 00       	.word	0x0001;	????	
     88e:	00 0f       	.word	0x0f00;	????	
     890:	30 01       	.word	0x0130;	????	
     892:	00 00       	.word	0x0000;	????	
     894:	01 18       	.word	0x1801;	????	
     896:	1e 01       	.word	0x011e;	????	
     898:	00 00       	.word	0x0000;	????	
     89a:	8c 03       	.word	0x038c;	????	
     89c:	00 00       	.word	0x0000;	????	
     89e:	06 69       	addc	r9,	r6	
     8a0:	00 01       	.word	0x0100;	????	
     8a2:	1a 24       	jz	$+54     	;abs 0x8d8
     8a4:	01 00       	.word	0x0001;	????	
     8a6:	00 97       	cmp	r7,	r0	
     8a8:	03 00       	.word	0x0003;	????	
     8aa:	00 00       	.word	0x0000;	????	
     8ac:	08 02       	.word	0x0208;	????	
     8ae:	99 00       	.word	0x0099;	????	
     8b0:	00 00       	.word	0x0000;	????	
     8b2:	10 02       	.word	0x0210;	????	
     8b4:	05 69       	addc	r9,	r5	
     8b6:	6e 74       	subc.b	@r4,	r14	
     8b8:	00 0e       	.word	0x0e00;	????	
     8ba:	01 d4       	bis	r4,	r1	
     8bc:	02 00       	.word	0x0002;	????	
     8be:	00 01       	.word	0x0100;	????	
     8c0:	21 01       	.word	0x0121;	????	
     8c2:	20 c6       	bic	@r6,	r0	
     8c4:	9a c6 a3 03 	bic	931(r6),0(r10)	;0x03a3(r6), 0x0000(r10)
     8c8:	00 00 
     8ca:	76 01       	.word	0x0176;	????	
     8cc:	00 00       	.word	0x0000;	????	
     8ce:	05 6e       	addc	r14,	r5	
     8d0:	00 01       	.word	0x0100;	????	
     8d2:	21 24       	jz	$+68     	;abs 0x916
     8d4:	01 00       	.word	0x0001;	????	
     8d6:	00 cf       	bic	r15,	r0	
     8d8:	03 00       	.word	0x0003;	????	
     8da:	00 11       	rra	r0		
     8dc:	4f 03       	.word	0x034f;	????	
     8de:	00 00       	.word	0x0000;	????	
     8e0:	01 23       	jnz	$-508    	;abs 0x6e4
     8e2:	76 01       	.word	0x0176;	????	
     8e4:	00 00       	.word	0x0000;	????	
     8e6:	02 91       	cmp	r1,	r2	
     8e8:	58 06       	.word	0x0658;	????	
     8ea:	69 00       	.word	0x0069;	????	
     8ec:	01 24       	jz	$+4      	;abs 0x8f0
     8ee:	24 01       	.word	0x0124;	????	
     8f0:	00 00       	.word	0x0000;	????	
     8f2:	f6 03       	.word	0x03f6;	????	
     8f4:	00 00       	.word	0x0000;	????	
     8f6:	06 6a       	addc	r10,	r6	
     8f8:	00 01       	.word	0x0100;	????	
     8fa:	25 24       	jz	$+76     	;abs 0x946
     8fc:	01 00       	.word	0x0001;	????	
     8fe:	00 01       	.word	0x0100;	????	
     900:	04 00       	.word	0x0004;	????	
     902:	00 00       	.word	0x0000;	????	
     904:	0c 24       	jz	$+26     	;abs 0x91e
     906:	01 00       	.word	0x0001;	????	
     908:	00 86       	sub	r6,	r0	
     90a:	01 00       	.word	0x0001;	????	
     90c:	00 0d       	.word	0x0d00;	????	
     90e:	d0 00       	.word	0x00d0;	????	
     910:	00 00       	.word	0x0000;	????	
     912:	0f 00       	.word	0x000f;	????	
     914:	0e 01       	.word	0x010e;	????	
     916:	ac 02       	.word	0x02ac;	????	
     918:	00 00       	.word	0x0000;	????	
     91a:	01 36       	jge	$-1020   	;abs 0x51e
     91c:	01 9a       	cmp	r10,	r1	
     91e:	c6 d4 c6 0e 	bis.b	r4,	3782(r6);0x0ec6(r6)
     922:	04 00       	.word	0x0004;	????	
     924:	00 c5       	bic	r5,	r0	
     926:	01 00       	.word	0x0001;	????	
     928:	00 05       	.word	0x0500;	????	
     92a:	6e 00       	.word	0x006e;	????	
     92c:	01 36       	jge	$-1020   	;abs 0x530
     92e:	24 01       	.word	0x0124;	????	
     930:	00 00       	.word	0x0000;	????	
     932:	2a 04       	.word	0x042a;	????	
     934:	00 00       	.word	0x0000;	????	
     936:	0f ed       	xor	r13,	r15	
     938:	02 00       	.word	0x0002;	????	
     93a:	00 01       	.word	0x0100;	????	
     93c:	36 24       	jz	$+110    	;abs 0x9aa
     93e:	01 00       	.word	0x0001;	????	
     940:	00 3c       	jmp	$+2      	;abs 0x942
     942:	04 00       	.word	0x0004;	????	
     944:	00 06       	.word	0x0600;	????	
     946:	69 00       	.word	0x0069;	????	
     948:	01 38       	jl	$+4      	;abs 0x94c
     94a:	24 01       	.word	0x0124;	????	
     94c:	00 00       	.word	0x0000;	????	
     94e:	47 04       	.word	0x0447;	????	
     950:	00 00       	.word	0x0000;	????	
     952:	00 0e       	.word	0x0e00;	????	
     954:	01 b7       	bit	r7,	r1	
     956:	02 00       	.word	0x0002;	????	
     958:	00 01       	.word	0x0100;	????	
     95a:	6a 01       	.word	0x016a;	????	
     95c:	d4 c6 fe c7 	bic.b	-14338(r6),1113(r4);0xc7fe(r6), 0x0459(r4)
     960:	59 04 
     962:	00 00       	.word	0x0000;	????	
     964:	28 02       	.word	0x0228;	????	
     966:	00 00       	.word	0x0000;	????	
     968:	0f 00       	.word	0x000f;	????	
     96a:	03 00       	.word	0x0003;	????	
     96c:	00 01       	.word	0x0100;	????	
     96e:	6a 1e       	.word	0x1e6a;	????	
     970:	01 00       	.word	0x0001;	????	
     972:	00 85       	sub	r5,	r0	
     974:	04 00       	.word	0x0004;	????	
     976:	00 12       	push	r0		
     978:	06 63       	adc	r6		
     97a:	00 01       	.word	0x0100;	????	
     97c:	6c 99       	cmp.b	@r9,	r12	
     97e:	00 00       	.word	0x0000;	????	
     980:	00 ba       	bit	r10,	r0	
     982:	04 00       	.word	0x0004;	????	
     984:	00 06       	.word	0x0600;	????	
     986:	69 00       	.word	0x0069;	????	
     988:	01 6d       	addc	r13,	r1	
     98a:	24 01       	.word	0x0124;	????	
     98c:	00 00       	.word	0x0000;	????	
     98e:	27 05       	.word	0x0527;	????	
     990:	00 00       	.word	0x0000;	????	
     992:	06 6e       	addc	r14,	r6	
     994:	00 01       	.word	0x0100;	????	
     996:	6e 28       	jnc	$+222    	;abs 0xa74
     998:	02 00       	.word	0x0002;	????	
     99a:	00 49       	br	r9		
     99c:	05 00       	.word	0x0005;	????	
     99e:	00 06       	.word	0x0600;	????	
     9a0:	61 00       	.word	0x0061;	????	
     9a2:	01 70       	subc	r0,	r1	
     9a4:	32 00       	.word	0x0032;	????	
     9a6:	00 00       	.word	0x0000;	????	
     9a8:	74 05       	.word	0x0574;	????	
     9aa:	00 00       	.word	0x0000;	????	
     9ac:	13 e5       	.word	0xe513;	????	Illegal as 2-op instr
     9ae:	02 00       	.word	0x0002;	????	
     9b0:	00 01       	.word	0x0100;	????	
     9b2:	95 ea c7 00 	xor	199(r10),1031(r5);0x00c7(r10), 0x0407(r5)
     9b6:	07 04 
     9b8:	05 6f       	addc	r15,	r5	
     9ba:	00 00       	.word	0x0000;	????	
     9bc:	00 0c       	.word	0x0c00;	????	
     9be:	87 00       	.word	0x0087;	????	
     9c0:	00 00       	.word	0x0000;	????	
     9c2:	3f 02       	.word	0x023f;	????	
     9c4:	00 00       	.word	0x0000;	????	
     9c6:	0d d0       	bis	r0,	r13	
     9c8:	00 00       	.word	0x0000;	????	
     9ca:	00 09       	.word	0x0900;	????	
     9cc:	00 0b       	.word	0x0b00;	????	
     9ce:	5f 64 76 00 	addc.b	118(r4),r15	;0x0076(r4)
     9d2:	01 44       	mov	r4,	r1	
     9d4:	4e 02       	.word	0x024e;	????	
     9d6:	00 00       	.word	0x0000;	????	
     9d8:	03 03       	.word	0x0303;	????	
     9da:	48 cb       	bic.b	r11,	r8	
     9dc:	09 2f       	jc	$-492    	;abs 0x7f0
     9de:	02 00       	.word	0x0002;	????	
     9e0:	00 00       	.word	0x0000;	????	
     9e2:	5a 00       	.word	0x005a;	????	
     9e4:	00 00       	.word	0x0000;	????	
     9e6:	02 00       	.word	0x0002;	????	
     9e8:	7c 03       	.word	0x037c;	????	
     9ea:	00 00       	.word	0x0000;	????	
     9ec:	02 01       	.word	0x0102;	????	
     9ee:	8a 00       	.word	0x008a;	????	
     9f0:	00 00       	.word	0x0000;	????	
     9f2:	01 6a       	addc	r10,	r1	
     9f4:	03 00       	.word	0x0003;	????	
     9f6:	00 20       	jnz	$+2      	;abs 0x9f8
     9f8:	03 00       	.word	0x0003;	????	
     9fa:	00 fe       	and	r14,	r0	
     9fc:	c7 0a       	.word	0x0ac7;	????	
     9fe:	c8 14       	.word	0x14c8;	????	
     a00:	04 00       	.word	0x0004;	????	
     a02:	00 02       	.word	0x0200;	????	
     a04:	01 5f       	add	r15,	r1	
     a06:	03 00       	.word	0x0003;	????	
     a08:	00 01       	.word	0x0100;	????	
     a0a:	17 01       	.word	0x0117;	????	
     a0c:	fe c7 04 c8 	bic.b	@r7+,	-14332(r14);0xc804(r14)
     a10:	02 71       	subc	r1,	r2	
     a12:	02 43       	clr	r2		
     a14:	00 00       	.word	0x0000;	????	
     a16:	00 03       	.word	0x0300;	????	
     a18:	63 00       	.word	0x0063;	????	
     a1a:	01 17       	.word	0x1701;	????	
     a1c:	43 00       	.word	0x0043;	????	
     a1e:	00 00       	.word	0x0000;	????	
     a20:	c5 05       	.word	0x05c5;	????	
     a22:	00 00       	.word	0x0000;	????	
     a24:	00 04       	.word	0x0400;	????	
     a26:	01 06       	.word	0x0601;	????	
     a28:	08 01       	.word	0x0108;	????	
     a2a:	00 00       	.word	0x0000;	????	
     a2c:	05 01       	.word	0x0105;	????	
     a2e:	56 03       	.word	0x0356;	????	
     a30:	00 00       	.word	0x0000;	????	
     a32:	01 1c       	.word	0x1c01;	????	
     a34:	43 00       	.word	0x0043;	????	
     a36:	00 00       	.word	0x0000;	????	
     a38:	04 c8       	bic	r8,	r4	
     a3a:	0a c8       	bic	r8,	r10	
     a3c:	02 71       	subc	r1,	r2	
     a3e:	02 00       	.word	0x0002;	????	
     a40:	c3 01       	.word	0x01c3;	????	
     a42:	00 00       	.word	0x0000;	????	
     a44:	02 00       	.word	0x0002;	????	
     a46:	d6 03       	.word	0x03d6;	????	
     a48:	00 00       	.word	0x0000;	????	
     a4a:	02 01       	.word	0x0102;	????	
     a4c:	8a 00       	.word	0x008a;	????	
     a4e:	00 00       	.word	0x0000;	????	
     a50:	01 97       	cmp	r7,	r1	
     a52:	03 00       	.word	0x0003;	????	
     a54:	00 5d       	add	r13,	r0	
     a56:	04 00       	.word	0x0004;	????	
     a58:	00 0a       	.word	0x0a00;	????	
     a5a:	c8 6c c9 55 	addc.b	r12,	21961(r8);0x55c9(r8)
     a5e:	04 00       	.word	0x0004;	????	
     a60:	00 02       	.word	0x0200;	????	
     a62:	02 07       	.word	0x0702;	????	
     a64:	17 01       	.word	0x0117;	????	
     a66:	00 00       	.word	0x0000;	????	
     a68:	02 01       	.word	0x0102;	????	
     a6a:	06 01       	.word	0x0106;	????	
     a6c:	01 00       	.word	0x0001;	????	
     a6e:	00 03       	.word	0x0300;	????	
     a70:	02 05       	.word	0x0502;	????	
     a72:	69 6e       	addc.b	@r14,	r9	
     a74:	74 00       	.word	0x0074;	????	
     a76:	02 04       	.word	0x0402;	????	
     a78:	05 6f       	addc	r15,	r5	
     a7a:	00 00       	.word	0x0000;	????	
     a7c:	00 02       	.word	0x0200;	????	
     a7e:	08 05       	.word	0x0508;	????	
     a80:	6a 00       	.word	0x006a;	????	
     a82:	00 00       	.word	0x0000;	????	
     a84:	02 01       	.word	0x0102;	????	
     a86:	08 ff       	and	r15,	r8	
     a88:	00 00       	.word	0x0000;	????	
     a8a:	00 02       	.word	0x0200;	????	
     a8c:	04 07       	.word	0x0704;	????	
     a8e:	12 01       	.word	0x0112;	????	
     a90:	00 00       	.word	0x0000;	????	
     a92:	02 08       	.word	0x0802;	????	
     a94:	07 0d       	.word	0x0d07;	????	
     a96:	01 00       	.word	0x0001;	????	
     a98:	00 04       	.word	0x0400;	????	
     a9a:	01 04       	.word	0x0401;	????	
     a9c:	04 00       	.word	0x0004;	????	
     a9e:	00 01       	.word	0x0100;	????	
     aa0:	2a 01       	.word	0x012a;	????	
     aa2:	0a c8       	bic	r8,	r10	
     aa4:	34 c9       	bic	@r9+,	r4	
     aa6:	02 71       	subc	r1,	r2	
     aa8:	02 8d       	sub	r13,	r2	
     aaa:	00 00       	.word	0x0000;	????	
     aac:	00 05       	.word	0x0500;	????	
     aae:	79 03       	.word	0x0379;	????	
     ab0:	00 00       	.word	0x0000;	????	
     ab2:	01 2a       	jnc	$-1020   	;abs 0x6b6
     ab4:	36 00       	.word	0x0036;	????	
     ab6:	00 00       	.word	0x0000;	????	
     ab8:	06 5e       	add	r14,	r6	
     aba:	93 02       	.word	0x0293;	????	
     abc:	5f 93       	cmp.b	#1,	r15	;r3 As==01
     abe:	02 05       	.word	0x0502;	????	
     ac0:	fb 03       	.word	0x03fb;	????	
     ac2:	00 00       	.word	0x0000;	????	
     ac4:	01 2a       	jnc	$-1020   	;abs 0x6c8
     ac6:	21 00       	.word	0x0021;	????	
     ac8:	00 00       	.word	0x0000;	????	
     aca:	01 5d       	add	r13,	r1	
     acc:	00 04       	.word	0x0400;	????	
     ace:	01 20       	jnz	$+4      	;abs 0xad2
     ad0:	04 00       	.word	0x0004;	????	
     ad2:	00 01       	.word	0x0100;	????	
     ad4:	25 01       	.word	0x0125;	????	
     ad6:	34 c9       	bic	@r9+,	r4	
     ad8:	44 c9       	bic.b	r9,	r4	
     ada:	02 71       	subc	r1,	r2	
     adc:	02 b1       	bit	r1,	r2	
     ade:	00 00       	.word	0x0000;	????	
     ae0:	00 06       	.word	0x0600;	????	
     ae2:	fb 03       	.word	0x03fb;	????	
     ae4:	00 00       	.word	0x0000;	????	
     ae6:	01 25       	jz	$+516    	;abs 0xcea
     ae8:	21 00       	.word	0x0021;	????	
     aea:	00 00       	.word	0x0000;	????	
     aec:	d0 05       	.word	0x05d0;	????	
     aee:	00 00       	.word	0x0000;	????	
     af0:	00 04       	.word	0x0400;	????	
     af2:	01 cf       	bic	r15,	r1	
     af4:	03 00       	.word	0x0003;	????	
     af6:	00 01       	.word	0x0100;	????	
     af8:	5d 01       	.word	0x015d;	????	
     afa:	44 c9       	bic.b	r9,	r4	
     afc:	4a c9       	bic.b	r9,	r10	
     afe:	02 71       	subc	r1,	r2	
     b00:	02 d3       	bis	#0,	r2	;r3 As==00
     b02:	00 00       	.word	0x0000;	????	
     b04:	00 05       	.word	0x0500;	????	
     b06:	f6 03       	.word	0x03f6;	????	
     b08:	00 00       	.word	0x0000;	????	
     b0a:	01 5d       	add	r13,	r1	
     b0c:	44 00       	.word	0x0044;	????	
     b0e:	00 00       	.word	0x0000;	????	
     b10:	01 5f       	add	r15,	r1	
     b12:	00 04       	.word	0x0400;	????	
     b14:	01 37       	jge	$-508    	;abs 0x918
     b16:	04 00       	.word	0x0004;	????	
     b18:	00 01       	.word	0x0100;	????	
     b1a:	62 01       	.word	0x0162;	????	
     b1c:	4a c9       	bic.b	r9,	r10	
     b1e:	58 c9 02 71 	bic.b	28930(r9),r8	;0x7102(r9)
     b22:	02 f5       	and	r5,	r2	
     b24:	00 00       	.word	0x0000;	????	
     b26:	00 05       	.word	0x0500;	????	
     b28:	f6 03       	.word	0x03f6;	????	
     b2a:	00 00       	.word	0x0000;	????	
     b2c:	01 62       	addc	r2,	r1	
     b2e:	44 00       	.word	0x0044;	????	
     b30:	00 00       	.word	0x0000;	????	
     b32:	01 5f       	add	r15,	r1	
     b34:	00 07       	.word	0x0700;	????	
     b36:	01 c3       	bic	#0,	r1	;r3 As==00
     b38:	03 00       	.word	0x0003;	????	
     b3a:	00 01       	.word	0x0100;	????	
     b3c:	68 44       	mov.b	@r4,	r8	
     b3e:	00 00       	.word	0x0000;	????	
     b40:	00 58       	add	r8,	r0	
     b42:	c9 5e c9 02 	add.b	r14,	713(r9)	;0x02c9(r9)
     b46:	71 02       	.word	0x0271;	????	
     b48:	07 01       	.word	0x0107;	????	
     b4a:	82 03       	.word	0x0382;	????	
     b4c:	00 00       	.word	0x0000;	????	
     b4e:	01 6d       	addc	r13,	r1	
     b50:	44 00       	.word	0x0044;	????	
     b52:	00 00       	.word	0x0000;	????	
     b54:	5e c9 6c c9 	bic.b	-13972(r9),r14	;0xc96c(r9)
     b58:	02 71       	subc	r1,	r2	
     b5a:	02 08       	.word	0x0802;	????	
     b5c:	4e 04       	.word	0x044e;	????	
     b5e:	00 00       	.word	0x0000;	????	
     b60:	02 a0       	dadd	r0,	r2	
     b62:	4c 04       	.word	0x044c;	????	
     b64:	00 00       	.word	0x0000;	????	
     b66:	2c 01       	.word	0x012c;	????	
     b68:	00 00       	.word	0x0000;	????	
     b6a:	01 01       	.word	0x0101;	????	
     b6c:	09 44       	mov	r4,	r9	
     b6e:	00 00       	.word	0x0000;	????	
     b70:	00 0a       	.word	0x0a00;	????	
     b72:	e6 03       	.word	0x03e6;	????	
     b74:	00 00       	.word	0x0000;	????	
     b76:	02 e4       	xor	r4,	r2	
     b78:	01 e4       	xor	r4,	r1	
     b7a:	03 00       	.word	0x0003;	????	
     b7c:	00 2c       	jc	$+2      	;abs 0xb7e
     b7e:	01 00       	.word	0x0001;	????	
     b80:	00 01       	.word	0x0100;	????	
     b82:	01 0a       	.word	0x0a01;	????	
     b84:	dd 03       	.word	0x03dd;	????	
     b86:	00 00       	.word	0x0000;	????	
     b88:	02 e6       	xor	r6,	r2	
     b8a:	01 db       	bis	r11,	r1	
     b8c:	03 00       	.word	0x0003;	????	
     b8e:	00 2c       	jc	$+2      	;abs 0xb90
     b90:	01 00       	.word	0x0001;	????	
     b92:	00 01       	.word	0x0100;	????	
     b94:	01 0a       	.word	0x0a01;	????	
     b96:	ba 03       	.word	0x03ba;	????	
     b98:	00 00       	.word	0x0000;	????	
     b9a:	02 b3       	bit	#0,	r2	;r3 As==00
     b9c:	02 b8       	bit	r8,	r2	
     b9e:	03 00       	.word	0x0003;	????	
     ba0:	00 2c       	jc	$+2      	;abs 0xba2
     ba2:	01 00       	.word	0x0001;	????	
     ba4:	00 01       	.word	0x0100;	????	
     ba6:	01 0a       	.word	0x0a01;	????	
     ba8:	55 04       	.word	0x0455;	????	
     baa:	00 00       	.word	0x0000;	????	
     bac:	02 b5       	bit	r5,	r2	
     bae:	02 53       	add	#0,	r2	;r3 As==00
     bb0:	04 00       	.word	0x0004;	????	
     bb2:	00 2c       	jc	$+2      	;abs 0xbb4
     bb4:	01 00       	.word	0x0001;	????	
     bb6:	00 01       	.word	0x0100;	????	
     bb8:	01 0a       	.word	0x0a01;	????	
     bba:	ee 03       	.word	0x03ee;	????	
     bbc:	00 00       	.word	0x0000;	????	
     bbe:	02 b7       	bit	r7,	r2	
     bc0:	02 ec       	xor	r12,	r2	
     bc2:	03 00       	.word	0x0003;	????	
     bc4:	00 2c       	jc	$+2      	;abs 0xbc6
     bc6:	01 00       	.word	0x0001;	????	
     bc8:	00 01       	.word	0x0100;	????	
     bca:	01 0a       	.word	0x0a01;	????	
     bcc:	2e 04       	.word	0x042e;	????	
     bce:	00 00       	.word	0x0000;	????	
     bd0:	02 b9       	bit	r9,	r2	
     bd2:	02 2c       	jc	$+6      	;abs 0xbd8
     bd4:	04 00       	.word	0x0004;	????	
     bd6:	00 2c       	jc	$+2      	;abs 0xbd8
     bd8:	01 00       	.word	0x0001;	????	
     bda:	00 01       	.word	0x0100;	????	
     bdc:	01 0a       	.word	0x0a01;	????	
     bde:	ae 03       	.word	0x03ae;	????	
     be0:	00 00       	.word	0x0000;	????	
     be2:	02 bd       	bit	r13,	r2	
     be4:	02 ac       	dadd	r12,	r2	
     be6:	03 00       	.word	0x0003;	????	
     be8:	00 af       	dadd	r15,	r0	
     bea:	01 00       	.word	0x0001;	????	
     bec:	00 01       	.word	0x0100;	????	
     bee:	01 0b       	.word	0x0b01;	????	
     bf0:	2c 01       	.word	0x012c;	????	
     bf2:	00 00       	.word	0x0000;	????	
     bf4:	0a 16       	.word	0x160a;	????	
     bf6:	04 00       	.word	0x0004;	????	
     bf8:	00 02       	.word	0x0200;	????	
     bfa:	bf 02       	.word	0x02bf;	????	
     bfc:	14 04       	.word	0x0414;	????	
     bfe:	00 00       	.word	0x0000;	????	
     c00:	2c 01       	.word	0x012c;	????	
     c02:	00 00       	.word	0x0000;	????	
     c04:	01 01       	.word	0x0101;	????	
     c06:	00 86       	sub	r6,	r0	
     c08:	00 00       	.word	0x0000;	????	
     c0a:	00 02       	.word	0x0200;	????	
     c0c:	00 80       	sub	r0,	r0	
     c0e:	04 00       	.word	0x0004;	????	
     c10:	00 02       	.word	0x0200;	????	
     c12:	01 47       	mov	r7,	r1	
     c14:	05 00       	.word	0x0005;	????	
     c16:	00 6c       	addc	r12,	r0	
     c18:	c9 a6 c9 2e 	dadd.b	r6,	11977(r9);0x2ec9(r9)
     c1c:	2e 2f       	jc	$-418    	;abs 0xa7a
     c1e:	2e 2e       	jc	$-930    	;abs 0x87c
     c20:	2f 2e       	jc	$-928    	;abs 0x880
     c22:	2e 2f       	jc	$-418    	;abs 0xa80
     c24:	2e 2e       	jc	$-930    	;abs 0x882
     c26:	2f 67       	addc	@r7,	r15	
     c28:	63 63       	.word	0x6363;	????	Illegal as 2-op instr
     c2a:	2f 6c       	addc	@r12,	r15	
     c2c:	69 62       	addc.b	#4,	r9	;r2 As==10
     c2e:	67 63       	addc.b	#2,	r7	;r3 As==10
     c30:	63 2f       	jc	$-312    	;abs 0xaf8
     c32:	2e 2e       	jc	$-930    	;abs 0x890
     c34:	2f 67       	addc	@r7,	r15	
     c36:	63 63       	.word	0x6363;	????	Illegal as 2-op instr
     c38:	2f 63       	addc	#2,	r15	;r3 As==10
     c3a:	6f 6e       	addc.b	@r14,	r15	
     c3c:	66 69       	addc.b	@r9,	r6	
     c3e:	67 2f       	jc	$-304    	;abs 0xb0e
     c40:	6d 73       	subc.b	#2,	r13	;r3 As==10
     c42:	70 34       	jge	$+226    	;abs 0xd24
     c44:	33 30       	jn	$+104    	;abs 0xcac
     c46:	2f 6c       	addc	@r12,	r15	
     c48:	69 62       	addc.b	#4,	r9	;r2 As==10
     c4a:	67 63       	addc.b	#2,	r7	;r3 As==10
     c4c:	63 2e       	jc	$-824    	;abs 0x914
     c4e:	53 00       	.word	0x0053;	????	
     c50:	2f 68       	addc	@r8,	r15	
     c52:	6f 6d       	addc.b	@r13,	r15	
     c54:	65 2f       	jc	$-308    	;abs 0xb20
     c56:	72 6f       	addc.b	@r15+,	r2	
     c58:	62 65       	addc.b	@r5,	r2	
     c5a:	72 74       	subc.b	@r4+,	r2	
     c5c:	69 6e       	addc.b	@r14,	r9	
     c5e:	61 6e       	addc.b	@r14,	r1	
     c60:	74 2f       	jc	$-278    	;abs 0xb4a
     c62:	6d 73       	subc.b	#2,	r13	;r3 As==10
     c64:	70 67       	addc.b	@r7+,	r0	
     c66:	63 63       	.word	0x6363;	????	Illegal as 2-op instr
     c68:	2f 42       	mov	#4,	r15	;r2 As==10
     c6a:	55 49 4c 44 	mov.b	17484(r9),r5	;0x444c(r9)
     c6e:	2f 67       	addc	@r7,	r15	
     c70:	63 63       	.word	0x6363;	????	Illegal as 2-op instr
     c72:	2f 6d       	addc	@r13,	r15	
     c74:	73 70       	.word	0x7073;	????	Illegal as 2-op instr
     c76:	34 33       	jn	$-406    	;abs 0xae0
     c78:	30 2f       	jc	$-414    	;abs 0xada
     c7a:	6c 69       	addc.b	@r9,	r12	
     c7c:	62 67       	addc.b	@r7,	r2	
     c7e:	63 63       	.word	0x6363;	????	Illegal as 2-op instr
     c80:	00 47       	br	r7		
     c82:	4e 55       	add.b	r5,	r14	
     c84:	20 41       	br	@r1		
     c86:	53 20       	jnz	$+168    	;abs 0xd2e
     c88:	32 2e       	jc	$-922    	;abs 0x8ee
     c8a:	32 31       	jn	$+614    	;abs 0xef0
     c8c:	2e 31       	jn	$+606    	;abs 0xeea
     c8e:	00 01       	.word	0x0100;	????	
     c90:	80 86 00 00 	sub	r6,	0(r0)	;PC rel. 0x0c92
     c94:	00 02       	.word	0x0200;	????	
     c96:	00 94       	cmp	r4,	r0	
     c98:	04 00       	.word	0x0004;	????	
     c9a:	00 02       	.word	0x0200;	????	
     c9c:	01 c3       	bic	#0,	r1	;r3 As==00
     c9e:	05 00       	.word	0x0005;	????	
     ca0:	00 a6       	dadd	r6,	r0	
     ca2:	c9 c8 c9 2e 	bic.b	r8,	11977(r9);0x2ec9(r9)
     ca6:	2e 2f       	jc	$-418    	;abs 0xb04
     ca8:	2e 2e       	jc	$-930    	;abs 0x906
     caa:	2f 2e       	jc	$-928    	;abs 0x90a
     cac:	2e 2f       	jc	$-418    	;abs 0xb0a
     cae:	2e 2e       	jc	$-930    	;abs 0x90c
     cb0:	2f 67       	addc	@r7,	r15	
     cb2:	63 63       	.word	0x6363;	????	Illegal as 2-op instr
     cb4:	2f 6c       	addc	@r12,	r15	
     cb6:	69 62       	addc.b	#4,	r9	;r2 As==10
     cb8:	67 63       	addc.b	#2,	r7	;r3 As==10
     cba:	63 2f       	jc	$-312    	;abs 0xb82
     cbc:	2e 2e       	jc	$-930    	;abs 0x91a
     cbe:	2f 67       	addc	@r7,	r15	
     cc0:	63 63       	.word	0x6363;	????	Illegal as 2-op instr
     cc2:	2f 63       	addc	#2,	r15	;r3 As==10
     cc4:	6f 6e       	addc.b	@r14,	r15	
     cc6:	66 69       	addc.b	@r9,	r6	
     cc8:	67 2f       	jc	$-304    	;abs 0xb98
     cca:	6d 73       	subc.b	#2,	r13	;r3 As==10
     ccc:	70 34       	jge	$+226    	;abs 0xdae
     cce:	33 30       	jn	$+104    	;abs 0xd36
     cd0:	2f 6c       	addc	@r12,	r15	
     cd2:	69 62       	addc.b	#4,	r9	;r2 As==10
     cd4:	67 63       	addc.b	#2,	r7	;r3 As==10
     cd6:	63 2e       	jc	$-824    	;abs 0x99e
     cd8:	53 00       	.word	0x0053;	????	
     cda:	2f 68       	addc	@r8,	r15	
     cdc:	6f 6d       	addc.b	@r13,	r15	
     cde:	65 2f       	jc	$-308    	;abs 0xbaa
     ce0:	72 6f       	addc.b	@r15+,	r2	
     ce2:	62 65       	addc.b	@r5,	r2	
     ce4:	72 74       	subc.b	@r4+,	r2	
     ce6:	69 6e       	addc.b	@r14,	r9	
     ce8:	61 6e       	addc.b	@r14,	r1	
     cea:	74 2f       	jc	$-278    	;abs 0xbd4
     cec:	6d 73       	subc.b	#2,	r13	;r3 As==10
     cee:	70 67       	addc.b	@r7+,	r0	
     cf0:	63 63       	.word	0x6363;	????	Illegal as 2-op instr
     cf2:	2f 42       	mov	#4,	r15	;r2 As==10
     cf4:	55 49 4c 44 	mov.b	17484(r9),r5	;0x444c(r9)
     cf8:	2f 67       	addc	@r7,	r15	
     cfa:	63 63       	.word	0x6363;	????	Illegal as 2-op instr
     cfc:	2f 6d       	addc	@r13,	r15	
     cfe:	73 70       	.word	0x7073;	????	Illegal as 2-op instr
     d00:	34 33       	jn	$-406    	;abs 0xb6a
     d02:	30 2f       	jc	$-414    	;abs 0xb64
     d04:	6c 69       	addc.b	@r9,	r12	
     d06:	62 67       	addc.b	@r7,	r2	
     d08:	63 63       	.word	0x6363;	????	Illegal as 2-op instr
     d0a:	00 47       	br	r7		
     d0c:	4e 55       	add.b	r5,	r14	
     d0e:	20 41       	br	@r1		
     d10:	53 20       	jnz	$+168    	;abs 0xdb8
     d12:	32 2e       	jc	$-922    	;abs 0x978
     d14:	32 31       	jn	$+614    	;abs 0xf7a
     d16:	2e 31       	jn	$+606    	;abs 0xf74
     d18:	00 01       	.word	0x0100;	????	
     d1a:	80 fa 00 00 	and	r10,	0(r0)	;PC rel. 0x0d1c
     d1e:	00 02       	.word	0x0200;	????	
     d20:	00 a8       	dadd	r8,	r0	
     d22:	04 00       	.word	0x0004;	????	
     d24:	00 02       	.word	0x0200;	????	
     d26:	01 8a       	sub	r10,	r1	
     d28:	00 00       	.word	0x0000;	????	
     d2a:	00 01       	.word	0x0100;	????	
     d2c:	a7 04       	.word	0x04a7;	????	
     d2e:	00 00       	.word	0x0000;	????	
     d30:	c6 04       	.word	0x04c6;	????	
     d32:	00 00       	.word	0x0000;	????	
     d34:	c8 c9 32 ca 	bic.b	r9,	-13774(r8);0xca32(r8)
     d38:	34 06       	.word	0x0634;	????	
     d3a:	00 00       	.word	0x0000;	????	
     d3c:	02 01       	.word	0x0102;	????	
     d3e:	06 01       	.word	0x0106;	????	
     d40:	01 00       	.word	0x0001;	????	
     d42:	00 03       	.word	0x0300;	????	
     d44:	02 05       	.word	0x0502;	????	
     d46:	69 6e       	addc.b	@r14,	r9	
     d48:	74 00       	.word	0x0074;	????	
     d4a:	02 04       	.word	0x0402;	????	
     d4c:	05 6f       	addc	r15,	r5	
     d4e:	00 00       	.word	0x0000;	????	
     d50:	00 02       	.word	0x0200;	????	
     d52:	08 05       	.word	0x0508;	????	
     d54:	6a 00       	.word	0x006a;	????	
     d56:	00 00       	.word	0x0000;	????	
     d58:	02 01       	.word	0x0102;	????	
     d5a:	08 ff       	and	r15,	r8	
     d5c:	00 00       	.word	0x0000;	????	
     d5e:	00 02       	.word	0x0200;	????	
     d60:	02 07       	.word	0x0702;	????	
     d62:	17 01       	.word	0x0117;	????	
     d64:	00 00       	.word	0x0000;	????	
     d66:	02 04       	.word	0x0402;	????	
     d68:	07 12       	push	r7		
     d6a:	01 00       	.word	0x0001;	????	
     d6c:	00 02       	.word	0x0200;	????	
     d6e:	08 07       	.word	0x0708;	????	
     d70:	0d 01       	.word	0x010d;	????	
     d72:	00 00       	.word	0x0000;	????	
     d74:	04 99       	cmp	r9,	r4	
     d76:	04 00       	.word	0x0004;	????	
     d78:	00 02       	.word	0x0200;	????	
     d7a:	30 3d       	jmp	$+610    	;abs 0xfdc
     d7c:	00 00       	.word	0x0000;	????	
     d7e:	00 02       	.word	0x0200;	????	
     d80:	02 07       	.word	0x0702;	????	
     d82:	5e 01       	.word	0x015e;	????	
     d84:	00 00       	.word	0x0000;	????	
     d86:	04 b9       	bit	r9,	r4	
     d88:	04 00       	.word	0x0004;	????	
     d8a:	00 02       	.word	0x0200;	????	
     d8c:	32 44       	mov	@r4+,	r2	
     d8e:	00 00       	.word	0x0000;	????	
     d90:	00 02       	.word	0x0200;	????	
     d92:	01 06       	.word	0x0601;	????	
     d94:	08 01       	.word	0x0108;	????	
     d96:	00 00       	.word	0x0000;	????	
     d98:	04 8d       	sub	r13,	r4	
     d9a:	04 00       	.word	0x0004;	????	
     d9c:	00 03       	.word	0x0300;	????	
     d9e:	d4 44 00 00 	mov.b	0(r4),	1280(r4);0x0000(r4), 0x0500(r4)
     da2:	00 05 
     da4:	01 a0       	dadd	r0,	r1	
     da6:	04 00       	.word	0x0004;	????	
     da8:	00 01       	.word	0x0100;	????	
     daa:	39 01       	.word	0x0139;	????	
     dac:	f5 00       	.word	0x00f5;	????	
     dae:	00 00       	.word	0x0000;	????	
     db0:	c8 c9 32 ca 	bic.b	r9,	-13774(r8);0xca32(r8)
     db4:	db 05       	.word	0x05db;	????	
     db6:	00 00       	.word	0x0000;	????	
     db8:	f5 00       	.word	0x00f5;	????	
     dba:	00 00       	.word	0x0000;	????	
     dbc:	06 94       	cmp	r4,	r6	
     dbe:	04 00       	.word	0x0004;	????	
     dc0:	00 01       	.word	0x0100;	????	
     dc2:	3a f5       	and	@r5+,	r10	
     dc4:	00 00       	.word	0x0000;	????	
     dc6:	00 01       	.word	0x0100;	????	
     dc8:	5f 07       	.word	0x075f;	????	
     dca:	63 30       	jn	$+200    	;abs 0xe92
     dcc:	00 01       	.word	0x0100;	????	
     dce:	3b 28       	jnc	$+120    	;abs 0xe46
     dd0:	00 00       	.word	0x0000;	????	
     dd2:	00 07       	.word	0x0700;	????	
     dd4:	06 00       	.word	0x0006;	????	
     dd6:	00 08       	.word	0x0800;	????	
     dd8:	bf 04       	.word	0x04bf;	????	
     dda:	00 00       	.word	0x0000;	????	
     ddc:	01 3c       	jmp	$+4      	;abs 0xde0
     dde:	7d 00       	.word	0x007d;	????	
     de0:	00 00       	.word	0x0000;	????	
     de2:	12 06       	.word	0x0612;	????	
     de4:	00 00       	.word	0x0000;	????	
     de6:	09 74       	subc	r4,	r9	
     de8:	00 01       	.word	0x0100;	????	
     dea:	3f 7d       	subc	@r13+,	r15	
     dec:	00 00       	.word	0x0000;	????	
     dee:	00 1d       	.word	0x1d00;	????	
     df0:	06 00       	.word	0x0006;	????	
     df2:	00 09       	.word	0x0900;	????	
     df4:	63 00       	.word	0x0063;	????	
     df6:	01 41       	mov	r1,	r1	
     df8:	6b 00       	.word	0x006b;	????	
     dfa:	00 00       	.word	0x0000;	????	
     dfc:	6f 06       	.word	0x066f;	????	
     dfe:	00 00       	.word	0x0000;	????	
     e00:	09 64       	addc	r4,	r9	
     e02:	73 74       	.word	0x7473;	????	Illegal as 2-op instr
     e04:	00 01       	.word	0x0100;	????	
     e06:	43 f7       	.word	0xf743;	????	Illegal as 2-op instr
     e08:	00 00       	.word	0x0000;	????	
     e0a:	00 7a       	subc	r10,	r0	
     e0c:	06 00       	.word	0x0006;	????	
     e0e:	00 00       	.word	0x0000;	????	
     e10:	0a 02       	.word	0x020a;	????	
     e12:	0b 02       	.word	0x020b;	????	
     e14:	59 00       	.word	0x0059;	????	
     e16:	00 00       	.word	0x0000;	????	
     e18:	00 6d       	addc	r13,	r0	
     e1a:	00 00       	.word	0x0000;	????	
     e1c:	00 02       	.word	0x0200;	????	
     e1e:	00 44       	br	r4		
     e20:	05 00       	.word	0x0005;	????	
     e22:	00 02       	.word	0x0200;	????	
     e24:	01 1c       	.word	0x1c01;	????	
     e26:	07 00       	.word	0x0007;	????	
     e28:	00 00       	.word	0x0000;	????	
     e2a:	c0 0c       	.word	0x0cc0;	????	
     e2c:	c0 2e       	jc	$-638    	;abs 0xbae
     e2e:	2e 2f       	jc	$-418    	;abs 0xc8c
     e30:	2e 2e       	jc	$-930    	;abs 0xa8e
     e32:	2f 2e       	jc	$-928    	;abs 0xa92
     e34:	2e 2f       	jc	$-418    	;abs 0xc92
     e36:	67 63       	addc.b	#2,	r7	;r3 As==10
     e38:	63 2f       	jc	$-312    	;abs 0xd00
     e3a:	67 63       	addc.b	#2,	r7	;r3 As==10
     e3c:	63 2f       	jc	$-312    	;abs 0xd04
     e3e:	63 6f       	.word	0x6f63;	????	Illegal as 2-op instr
     e40:	6e 66       	addc.b	@r6,	r14	
     e42:	69 67       	addc.b	@r7,	r9	
     e44:	2f 6d       	addc	@r13,	r15	
     e46:	73 70       	.word	0x7073;	????	Illegal as 2-op instr
     e48:	34 33       	jn	$-406    	;abs 0xcb2
     e4a:	30 2f       	jc	$-414    	;abs 0xcac
     e4c:	63 72       	.word	0x7263;	????	Illegal as 2-op instr
     e4e:	74 30       	jn	$+234    	;abs 0xf38
     e50:	2e 53       	incd	r14		
     e52:	00 2f       	jc	$-510    	;abs 0xc54
     e54:	68 6f       	addc.b	@r15,	r8	
     e56:	6d 65       	addc.b	@r5,	r13	
     e58:	2f 72       	subc	#4,	r15	;r2 As==10
     e5a:	6f 62       	addc.b	#4,	r15	;r2 As==10
     e5c:	65 72       	subc.b	#4,	r5	;r2 As==10
     e5e:	74 69       	addc.b	@r9+,	r4	
     e60:	6e 61       	addc.b	@r1,	r14	
     e62:	6e 74       	subc.b	@r4,	r14	
     e64:	2f 6d       	addc	@r13,	r15	
     e66:	73 70       	.word	0x7073;	????	Illegal as 2-op instr
     e68:	67 63       	addc.b	#2,	r7	;r3 As==10
     e6a:	63 2f       	jc	$-312    	;abs 0xd32
     e6c:	42 55       	add.b	r5,	r2	
     e6e:	49 4c       	mov.b	r12,	r9	
     e70:	44 2f       	jc	$-374    	;abs 0xcfa
     e72:	67 63       	addc.b	#2,	r7	;r3 As==10
     e74:	63 2f       	jc	$-312    	;abs 0xd3c
     e76:	67 63       	addc.b	#2,	r7	;r3 As==10
     e78:	63 00       	.word	0x0063;	????	
     e7a:	47 4e       	mov.b	r14,	r7	
     e7c:	55 20       	jnz	$+172    	;abs 0xf28
     e7e:	41 53       	add.b	#0,	r1	;r3 As==00
     e80:	20 32       	jn	$-958    	;abs 0xac2
     e82:	2e 32       	jn	$-930    	;abs 0xae0
     e84:	31 2e       	jc	$-924    	;abs 0xae8
     e86:	31 00       	.word	0x0031;	????	
     e88:	01 80       	sub	r0,	r1	
     e8a:	6d 00       	.word	0x006d;	????	
     e8c:	00 00       	.word	0x0000;	????	
     e8e:	02 00       	.word	0x0002;	????	
     e90:	58 05       	.word	0x0558;	????	
     e92:	00 00       	.word	0x0000;	????	
     e94:	02 01       	.word	0x0102;	????	
     e96:	72 07       	.word	0x0772;	????	
     e98:	00 00       	.word	0x0000;	????	
     e9a:	0c c0       	bic	r0,	r12	
     e9c:	10 c0 2e 2e 	bic	11822(r0),r0	;PC rel. 0x3ccc
     ea0:	2f 2e       	jc	$-928    	;abs 0xb00
     ea2:	2e 2f       	jc	$-418    	;abs 0xd00
     ea4:	2e 2e       	jc	$-930    	;abs 0xb02
     ea6:	2f 67       	addc	@r7,	r15	
     ea8:	63 63       	.word	0x6363;	????	Illegal as 2-op instr
     eaa:	2f 67       	addc	@r7,	r15	
     eac:	63 63       	.word	0x6363;	????	Illegal as 2-op instr
     eae:	2f 63       	addc	#2,	r15	;r3 As==10
     eb0:	6f 6e       	addc.b	@r14,	r15	
     eb2:	66 69       	addc.b	@r9,	r6	
     eb4:	67 2f       	jc	$-304    	;abs 0xd84
     eb6:	6d 73       	subc.b	#2,	r13	;r3 As==10
     eb8:	70 34       	jge	$+226    	;abs 0xf9a
     eba:	33 30       	jn	$+104    	;abs 0xf22
     ebc:	2f 63       	addc	#2,	r15	;r3 As==10
     ebe:	72 74       	subc.b	@r4+,	r2	
     ec0:	30 2e       	jc	$-926    	;abs 0xb22
     ec2:	53 00       	.word	0x0053;	????	
     ec4:	2f 68       	addc	@r8,	r15	
     ec6:	6f 6d       	addc.b	@r13,	r15	
     ec8:	65 2f       	jc	$-308    	;abs 0xd94
     eca:	72 6f       	addc.b	@r15+,	r2	
     ecc:	62 65       	addc.b	@r5,	r2	
     ece:	72 74       	subc.b	@r4+,	r2	
     ed0:	69 6e       	addc.b	@r14,	r9	
     ed2:	61 6e       	addc.b	@r14,	r1	
     ed4:	74 2f       	jc	$-278    	;abs 0xdbe
     ed6:	6d 73       	subc.b	#2,	r13	;r3 As==10
     ed8:	70 67       	addc.b	@r7+,	r0	
     eda:	63 63       	.word	0x6363;	????	Illegal as 2-op instr
     edc:	2f 42       	mov	#4,	r15	;r2 As==10
     ede:	55 49 4c 44 	mov.b	17484(r9),r5	;0x444c(r9)
     ee2:	2f 67       	addc	@r7,	r15	
     ee4:	63 63       	.word	0x6363;	????	Illegal as 2-op instr
     ee6:	2f 67       	addc	@r7,	r15	
     ee8:	63 63       	.word	0x6363;	????	Illegal as 2-op instr
     eea:	00 47       	br	r7		
     eec:	4e 55       	add.b	r5,	r14	
     eee:	20 41       	br	@r1		
     ef0:	53 20       	jnz	$+168    	;abs 0xf98
     ef2:	32 2e       	jc	$-922    	;abs 0xb58
     ef4:	32 31       	jn	$+614    	;abs 0x115a
     ef6:	2e 31       	jn	$+606    	;abs 0x1154
     ef8:	00 01       	.word	0x0100;	????	
     efa:	80 6d 00 00 	addc	r13,	0(r0)	;PC rel. 0x0efc
     efe:	00 02       	.word	0x0200;	????	
     f00:	00 6c       	addc	r12,	r0	
     f02:	05 00       	.word	0x0005;	????	
     f04:	00 02       	.word	0x0200;	????	
     f06:	01 c6       	bic	r6,	r1	
     f08:	07 00       	.word	0x0007;	????	
     f0a:	00 10       	rrc	r0		
     f0c:	c0 28       	jnc	$+386    	;abs 0x108e
     f0e:	c0 2e       	jc	$-638    	;abs 0xc90
     f10:	2e 2f       	jc	$-418    	;abs 0xd6e
     f12:	2e 2e       	jc	$-930    	;abs 0xb70
     f14:	2f 2e       	jc	$-928    	;abs 0xb74
     f16:	2e 2f       	jc	$-418    	;abs 0xd74
     f18:	67 63       	addc.b	#2,	r7	;r3 As==10
     f1a:	63 2f       	jc	$-312    	;abs 0xde2
     f1c:	67 63       	addc.b	#2,	r7	;r3 As==10
     f1e:	63 2f       	jc	$-312    	;abs 0xde6
     f20:	63 6f       	.word	0x6f63;	????	Illegal as 2-op instr
     f22:	6e 66       	addc.b	@r6,	r14	
     f24:	69 67       	addc.b	@r7,	r9	
     f26:	2f 6d       	addc	@r13,	r15	
     f28:	73 70       	.word	0x7073;	????	Illegal as 2-op instr
     f2a:	34 33       	jn	$-406    	;abs 0xd94
     f2c:	30 2f       	jc	$-414    	;abs 0xd8e
     f2e:	63 72       	.word	0x7263;	????	Illegal as 2-op instr
     f30:	74 30       	jn	$+234    	;abs 0x101a
     f32:	2e 53       	incd	r14		
     f34:	00 2f       	jc	$-510    	;abs 0xd36
     f36:	68 6f       	addc.b	@r15,	r8	
     f38:	6d 65       	addc.b	@r5,	r13	
     f3a:	2f 72       	subc	#4,	r15	;r2 As==10
     f3c:	6f 62       	addc.b	#4,	r15	;r2 As==10
     f3e:	65 72       	subc.b	#4,	r5	;r2 As==10
     f40:	74 69       	addc.b	@r9+,	r4	
     f42:	6e 61       	addc.b	@r1,	r14	
     f44:	6e 74       	subc.b	@r4,	r14	
     f46:	2f 6d       	addc	@r13,	r15	
     f48:	73 70       	.word	0x7073;	????	Illegal as 2-op instr
     f4a:	67 63       	addc.b	#2,	r7	;r3 As==10
     f4c:	63 2f       	jc	$-312    	;abs 0xe14
     f4e:	42 55       	add.b	r5,	r2	
     f50:	49 4c       	mov.b	r12,	r9	
     f52:	44 2f       	jc	$-374    	;abs 0xddc
     f54:	67 63       	addc.b	#2,	r7	;r3 As==10
     f56:	63 2f       	jc	$-312    	;abs 0xe1e
     f58:	67 63       	addc.b	#2,	r7	;r3 As==10
     f5a:	63 00       	.word	0x0063;	????	
     f5c:	47 4e       	mov.b	r14,	r7	
     f5e:	55 20       	jnz	$+172    	;abs 0x100a
     f60:	41 53       	add.b	#0,	r1	;r3 As==00
     f62:	20 32       	jn	$-958    	;abs 0xba4
     f64:	2e 32       	jn	$-930    	;abs 0xbc2
     f66:	31 2e       	jc	$-924    	;abs 0xbca
     f68:	31 00       	.word	0x0031;	????	
     f6a:	01 80       	sub	r0,	r1	
     f6c:	6d 00       	.word	0x006d;	????	
     f6e:	00 00       	.word	0x0000;	????	
     f70:	02 00       	.word	0x0002;	????	
     f72:	80 05       	.word	0x0580;	????	
     f74:	00 00       	.word	0x0000;	????	
     f76:	02 01       	.word	0x0102;	????	
     f78:	20 08       	.word	0x0820;	????	
     f7a:	00 00       	.word	0x0000;	????	
     f7c:	28 c0       	bic	@r0,	r8	
     f7e:	3e c0 2e 2e 	bic	#11822,	r14	;#0x2e2e
     f82:	2f 2e       	jc	$-928    	;abs 0xbe2
     f84:	2e 2f       	jc	$-418    	;abs 0xde2
     f86:	2e 2e       	jc	$-930    	;abs 0xbe4
     f88:	2f 67       	addc	@r7,	r15	
     f8a:	63 63       	.word	0x6363;	????	Illegal as 2-op instr
     f8c:	2f 67       	addc	@r7,	r15	
     f8e:	63 63       	.word	0x6363;	????	Illegal as 2-op instr
     f90:	2f 63       	addc	#2,	r15	;r3 As==10
     f92:	6f 6e       	addc.b	@r14,	r15	
     f94:	66 69       	addc.b	@r9,	r6	
     f96:	67 2f       	jc	$-304    	;abs 0xe66
     f98:	6d 73       	subc.b	#2,	r13	;r3 As==10
     f9a:	70 34       	jge	$+226    	;abs 0x107c
     f9c:	33 30       	jn	$+104    	;abs 0x1004
     f9e:	2f 63       	addc	#2,	r15	;r3 As==10
     fa0:	72 74       	subc.b	@r4+,	r2	
     fa2:	30 2e       	jc	$-926    	;abs 0xc04
     fa4:	53 00       	.word	0x0053;	????	
     fa6:	2f 68       	addc	@r8,	r15	
     fa8:	6f 6d       	addc.b	@r13,	r15	
     faa:	65 2f       	jc	$-308    	;abs 0xe76
     fac:	72 6f       	addc.b	@r15+,	r2	
     fae:	62 65       	addc.b	@r5,	r2	
     fb0:	72 74       	subc.b	@r4+,	r2	
     fb2:	69 6e       	addc.b	@r14,	r9	
     fb4:	61 6e       	addc.b	@r14,	r1	
     fb6:	74 2f       	jc	$-278    	;abs 0xea0
     fb8:	6d 73       	subc.b	#2,	r13	;r3 As==10
     fba:	70 67       	addc.b	@r7+,	r0	
     fbc:	63 63       	.word	0x6363;	????	Illegal as 2-op instr
     fbe:	2f 42       	mov	#4,	r15	;r2 As==10
     fc0:	55 49 4c 44 	mov.b	17484(r9),r5	;0x444c(r9)
     fc4:	2f 67       	addc	@r7,	r15	
     fc6:	63 63       	.word	0x6363;	????	Illegal as 2-op instr
     fc8:	2f 67       	addc	@r7,	r15	
     fca:	63 63       	.word	0x6363;	????	Illegal as 2-op instr
     fcc:	00 47       	br	r7		
     fce:	4e 55       	add.b	r5,	r14	
     fd0:	20 41       	br	@r1		
     fd2:	53 20       	jnz	$+168    	;abs 0x107a
     fd4:	32 2e       	jc	$-922    	;abs 0xc3a
     fd6:	32 31       	jn	$+614    	;abs 0x123c
     fd8:	2e 31       	jn	$+606    	;abs 0x1236
     fda:	00 01       	.word	0x0100;	????	
     fdc:	80 6d 00 00 	addc	r13,	0(r0)	;PC rel. 0x0fde
     fe0:	00 02       	.word	0x0200;	????	
     fe2:	00 94       	cmp	r4,	r0	
     fe4:	05 00       	.word	0x0005;	????	
     fe6:	00 02       	.word	0x0200;	????	
     fe8:	01 7a       	subc	r10,	r1	
     fea:	08 00       	.word	0x0008;	????	
     fec:	00 a2       	dadd	r2,	r0	
     fee:	c1 a8 c1 2e 	dadd.b	r8,	11969(r1);0x2ec1(r1)
     ff2:	2e 2f       	jc	$-418    	;abs 0xe50
     ff4:	2e 2e       	jc	$-930    	;abs 0xc52
     ff6:	2f 2e       	jc	$-928    	;abs 0xc56
     ff8:	2e 2f       	jc	$-418    	;abs 0xe56
     ffa:	67 63       	addc.b	#2,	r7	;r3 As==10
     ffc:	63 2f       	jc	$-312    	;abs 0xec4
     ffe:	67 63       	addc.b	#2,	r7	;r3 As==10
    1000:	63 2f       	jc	$-312    	;abs 0xec8
    1002:	63 6f       	.word	0x6f63;	????	Illegal as 2-op instr
    1004:	6e 66       	addc.b	@r6,	r14	
    1006:	69 67       	addc.b	@r7,	r9	
    1008:	2f 6d       	addc	@r13,	r15	
    100a:	73 70       	.word	0x7073;	????	Illegal as 2-op instr
    100c:	34 33       	jn	$-406    	;abs 0xe76
    100e:	30 2f       	jc	$-414    	;abs 0xe70
    1010:	63 72       	.word	0x7263;	????	Illegal as 2-op instr
    1012:	74 30       	jn	$+234    	;abs 0x10fc
    1014:	2e 53       	incd	r14		
    1016:	00 2f       	jc	$-510    	;abs 0xe18
    1018:	68 6f       	addc.b	@r15,	r8	
    101a:	6d 65       	addc.b	@r5,	r13	
    101c:	2f 72       	subc	#4,	r15	;r2 As==10
    101e:	6f 62       	addc.b	#4,	r15	;r2 As==10
    1020:	65 72       	subc.b	#4,	r5	;r2 As==10
    1022:	74 69       	addc.b	@r9+,	r4	
    1024:	6e 61       	addc.b	@r1,	r14	
    1026:	6e 74       	subc.b	@r4,	r14	
    1028:	2f 6d       	addc	@r13,	r15	
    102a:	73 70       	.word	0x7073;	????	Illegal as 2-op instr
    102c:	67 63       	addc.b	#2,	r7	;r3 As==10
    102e:	63 2f       	jc	$-312    	;abs 0xef6
    1030:	42 55       	add.b	r5,	r2	
    1032:	49 4c       	mov.b	r12,	r9	
    1034:	44 2f       	jc	$-374    	;abs 0xebe
    1036:	67 63       	addc.b	#2,	r7	;r3 As==10
    1038:	63 2f       	jc	$-312    	;abs 0xf00
    103a:	67 63       	addc.b	#2,	r7	;r3 As==10
    103c:	63 00       	.word	0x0063;	????	
    103e:	47 4e       	mov.b	r14,	r7	
    1040:	55 20       	jnz	$+172    	;abs 0x10ec
    1042:	41 53       	add.b	#0,	r1	;r3 As==00
    1044:	20 32       	jn	$-958    	;abs 0xc86
    1046:	2e 32       	jn	$-930    	;abs 0xca4
    1048:	31 2e       	jc	$-924    	;abs 0xcac
    104a:	31 00       	.word	0x0031;	????	
    104c:	01 80       	sub	r0,	r1	
    104e:	6d 00       	.word	0x006d;	????	
    1050:	00 00       	.word	0x0000;	????	
    1052:	02 00       	.word	0x0002;	????	
    1054:	a8 05       	.word	0x05a8;	????	
    1056:	00 00       	.word	0x0000;	????	
    1058:	02 01       	.word	0x0102;	????	
    105a:	cf 08       	.word	0x08cf;	????	
    105c:	00 00       	.word	0x0000;	????	
    105e:	32 ca       	bic	@r10+,	r2	
    1060:	34 ca       	bic	@r10+,	r4	
    1062:	2e 2e       	jc	$-930    	;abs 0xcc0
    1064:	2f 2e       	jc	$-928    	;abs 0xcc4
    1066:	2e 2f       	jc	$-418    	;abs 0xec4
    1068:	2e 2e       	jc	$-930    	;abs 0xcc6
    106a:	2f 67       	addc	@r7,	r15	
    106c:	63 63       	.word	0x6363;	????	Illegal as 2-op instr
    106e:	2f 67       	addc	@r7,	r15	
    1070:	63 63       	.word	0x6363;	????	Illegal as 2-op instr
    1072:	2f 63       	addc	#2,	r15	;r3 As==10
    1074:	6f 6e       	addc.b	@r14,	r15	
    1076:	66 69       	addc.b	@r9,	r6	
    1078:	67 2f       	jc	$-304    	;abs 0xf48
    107a:	6d 73       	subc.b	#2,	r13	;r3 As==10
    107c:	70 34       	jge	$+226    	;abs 0x115e
    107e:	33 30       	jn	$+104    	;abs 0x10e6
    1080:	2f 63       	addc	#2,	r15	;r3 As==10
    1082:	72 74       	subc.b	@r4+,	r2	
    1084:	30 2e       	jc	$-926    	;abs 0xce6
    1086:	53 00       	.word	0x0053;	????	
    1088:	2f 68       	addc	@r8,	r15	
    108a:	6f 6d       	addc.b	@r13,	r15	
    108c:	65 2f       	jc	$-308    	;abs 0xf58
    108e:	72 6f       	addc.b	@r15+,	r2	
    1090:	62 65       	addc.b	@r5,	r2	
    1092:	72 74       	subc.b	@r4+,	r2	
    1094:	69 6e       	addc.b	@r14,	r9	
    1096:	61 6e       	addc.b	@r14,	r1	
    1098:	74 2f       	jc	$-278    	;abs 0xf82
    109a:	6d 73       	subc.b	#2,	r13	;r3 As==10
    109c:	70 67       	addc.b	@r7+,	r0	
    109e:	63 63       	.word	0x6363;	????	Illegal as 2-op instr
    10a0:	2f 42       	mov	#4,	r15	;r2 As==10
    10a2:	55 49 4c 44 	mov.b	17484(r9),r5	;0x444c(r9)
    10a6:	2f 67       	addc	@r7,	r15	
    10a8:	63 63       	.word	0x6363;	????	Illegal as 2-op instr
    10aa:	2f 67       	addc	@r7,	r15	
    10ac:	63 63       	.word	0x6363;	????	Illegal as 2-op instr
    10ae:	00 47       	br	r7		
    10b0:	4e 55       	add.b	r5,	r14	
    10b2:	20 41       	br	@r1		
    10b4:	53 20       	jnz	$+168    	;abs 0x115c
    10b6:	32 2e       	jc	$-922    	;abs 0xd1c
    10b8:	32 31       	jn	$+614    	;abs 0x131e
    10ba:	2e 31       	jn	$+606    	;abs 0x1318
    10bc:	00 01       	.word	0x0100;	????	
    10be:	80 00       	Address 0x00000000000010be is out of bounds.
Address 0x00000000000010c0 is out of bounds.
and.b	@r15+,	-1(r15)	;0xffff(r15)

Disassembly of section .debug_abbrev:

00000000 <.debug_abbrev>:
   0:	01 11       	rra	r1		
   2:	01 25       	jz	$+516    	;abs 0x206
   4:	0e 13       	reti			;return from interupt
   6:	0b 03       	.word	0x030b;	????	
   8:	0e 1b       	.word	0x1b0e;	????	
   a:	0e 11       	rra	r14		
   c:	01 52       	add	r2,	r1	
   e:	01 55       	add	r5,	r1	
  10:	06 10       	rrc	r6		
  12:	06 00       	.word	0x0006;	????	
  14:	00 02       	.word	0x0200;	????	
  16:	24 00       	.word	0x0024;	????	
  18:	0b 0b       	.word	0x0b0b;	????	
  1a:	3e 0b       	.word	0x0b3e;	????	
  1c:	03 0e       	.word	0x0e03;	????	
  1e:	00 00       	.word	0x0000;	????	
  20:	03 24       	jz	$+8      	;abs 0x28
  22:	00 0b       	.word	0x0b00;	????	
  24:	0b 3e       	jmp	$-1000   	;abs 0xfc3c
  26:	0b 03       	.word	0x030b;	????	
  28:	08 00       	.word	0x0008;	????	
  2a:	00 04       	.word	0x0400;	????	
  2c:	0f 00       	.word	0x000f;	????	
  2e:	0b 0b       	.word	0x0b0b;	????	
  30:	49 13       	.word	0x1349;	????	
  32:	00 00       	.word	0x0000;	????	
  34:	05 26       	jz	$-1012   	;abs 0xfc40
  36:	00 49       	br	r9		
  38:	13 00       	.word	0x0013;	????	
  3a:	00 06       	.word	0x0600;	????	
  3c:	13 01       	.word	0x0113;	????	
  3e:	0b 0b       	.word	0x0b0b;	????	
  40:	3a 0b       	.word	0x0b3a;	????	
  42:	3b 0b       	.word	0x0b3b;	????	
  44:	01 13       	reti			;return from interupt
  46:	00 00       	.word	0x0000;	????	
  48:	07 0d       	.word	0x0d07;	????	
  4a:	00 03       	.word	0x0300;	????	
  4c:	08 3a       	jl	$-1006   	;abs 0xfc5e
  4e:	0b 3b       	jl	$-488    	;abs 0xfe66
  50:	0b 49       	mov	r9,	r11	
  52:	13 38       	jl	$+40     	;abs 0x7a
  54:	0a 00       	.word	0x000a;	????	
  56:	00 08       	.word	0x0800;	????	
  58:	01 01       	.word	0x0101;	????	
  5a:	49 13       	.word	0x1349;	????	
  5c:	01 13       	reti			;return from interupt
  5e:	00 00       	.word	0x0000;	????	
  60:	09 21       	jnz	$+532    	;abs 0x274
  62:	00 49       	br	r9		
  64:	13 2f       	jc	$-472    	;abs 0xfe8c
  66:	0b 00       	.word	0x000b;	????	
  68:	00 0a       	.word	0x0a00;	????	
  6a:	16 00       	.word	0x0016;	????	
  6c:	03 0e       	.word	0x0e03;	????	
  6e:	3a 0b       	.word	0x0b3a;	????	
  70:	3b 0b       	.word	0x0b3b;	????	
  72:	49 13       	.word	0x1349;	????	
  74:	00 00       	.word	0x0000;	????	
  76:	0b 0d       	.word	0x0d0b;	????	
  78:	00 03       	.word	0x0300;	????	
  7a:	0e 3a       	jl	$-994    	;abs 0xfc98
  7c:	0b 3b       	jl	$-488    	;abs 0xfe94
  7e:	0b 49       	mov	r9,	r11	
  80:	13 38       	jl	$+40     	;abs 0xa8
  82:	0a 00       	.word	0x000a;	????	
  84:	00 0c       	.word	0x0c00;	????	
  86:	15 01       	.word	0x0115;	????	
  88:	27 0c       	.word	0x0c27;	????	
  8a:	49 13       	.word	0x1349;	????	
  8c:	01 13       	reti			;return from interupt
  8e:	00 00       	.word	0x0000;	????	
  90:	0d 05       	.word	0x050d;	????	
  92:	00 49       	br	r9		
  94:	13 00       	.word	0x0013;	????	
  96:	00 0e       	.word	0x0e00;	????	
  98:	21 00       	.word	0x0021;	????	
  9a:	49 13       	.word	0x1349;	????	
  9c:	00 00       	.word	0x0000;	????	
  9e:	0f 2e       	jc	$-992    	;abs 0xfcbe
  a0:	01 3f       	jmp	$-508    	;abs 0xfea4
  a2:	0c 03       	.word	0x030c;	????	
  a4:	0e 3a       	jl	$-994    	;abs 0xfcc2
  a6:	0b 3b       	jl	$-488    	;abs 0xfebe
  a8:	0b 27       	jz	$-488    	;abs 0xfec0
  aa:	0c 49       	mov	r9,	r12	
  ac:	13 11       	rra	#1		;r3 As==01
  ae:	01 12       	push	r1		
  b0:	01 40       	mov	r0,	r1	
  b2:	06 01       	.word	0x0106;	????	
  b4:	13 00       	.word	0x0013;	????	
  b6:	00 10       	rrc	r0		
  b8:	05 00       	.word	0x0005;	????	
  ba:	03 0e       	.word	0x0e03;	????	
  bc:	3a 0b       	.word	0x0b3a;	????	
  be:	3b 0b       	.word	0x0b3b;	????	
  c0:	49 13       	.word	0x1349;	????	
  c2:	02 0a       	.word	0x0a02;	????	
  c4:	00 00       	.word	0x0000;	????	
  c6:	11 34       	jge	$+36     	;abs 0xea
  c8:	00 03       	.word	0x0300;	????	
  ca:	08 3a       	jl	$-1006   	;abs 0xfcdc
  cc:	0b 3b       	jl	$-488    	;abs 0xfee4
  ce:	0b 49       	mov	r9,	r11	
  d0:	13 02       	.word	0x0213;	????	
  d2:	0a 00       	.word	0x000a;	????	
  d4:	00 12       	push	r0		
  d6:	0b 01       	.word	0x010b;	????	
  d8:	11 01       	.word	0x0111;	????	
  da:	12 01       	.word	0x0112;	????	
  dc:	00 00       	.word	0x0000;	????	
  de:	13 34       	jge	$+40     	;abs 0x106
  e0:	00 03       	.word	0x0300;	????	
  e2:	0e 3a       	jl	$-994    	;abs 0xfd00
  e4:	0b 3b       	jl	$-488    	;abs 0xfefc
  e6:	0b 49       	mov	r9,	r11	
  e8:	13 02       	.word	0x0213;	????	
  ea:	0a 00       	.word	0x000a;	????	
  ec:	00 14       	.word	0x1400;	????	
  ee:	2e 00       	.word	0x002e;	????	
  f0:	3f 0c       	.word	0x0c3f;	????	
  f2:	03 0e       	.word	0x0e03;	????	
  f4:	3a 0b       	.word	0x0b3a;	????	
  f6:	3b 0b       	.word	0x0b3b;	????	
  f8:	27 0c       	.word	0x0c27;	????	
  fa:	11 01       	.word	0x0111;	????	
  fc:	12 01       	.word	0x0112;	????	
  fe:	40 06       	.word	0x0640;	????	
 100:	00 00       	.word	0x0000;	????	
 102:	15 2e       	jc	$-980    	;abs 0xfd2e
 104:	00 3f       	jmp	$-510    	;abs 0xff06
 106:	0c 03       	.word	0x030c;	????	
 108:	0e 3a       	jl	$-994    	;abs 0xfd26
 10a:	0b 3b       	jl	$-488    	;abs 0xff22
 10c:	0b 27       	jz	$-488    	;abs 0xff24
 10e:	0c 11       	rra	r12		
 110:	01 12       	push	r1		
 112:	01 40       	mov	r0,	r1	
 114:	0a 00       	.word	0x000a;	????	
 116:	00 16       	.word	0x1600;	????	
 118:	34 00       	.word	0x0034;	????	
 11a:	03 0e       	.word	0x0e03;	????	
 11c:	3a 0b       	.word	0x0b3a;	????	
 11e:	3b 05       	.word	0x053b;	????	
 120:	87 40 0e 49 	mov	r0,	18702(r7);0x490e(r7)
 124:	13 3f       	jmp	$-472    	;abs 0xff4c
 126:	0c 3c       	jmp	$+26     	;abs 0x140
 128:	0c 00       	.word	0x000c;	????	
 12a:	00 17       	.word	0x1700;	????	
 12c:	35 00       	.word	0x0035;	????	
 12e:	49 13       	.word	0x1349;	????	
 130:	00 00       	.word	0x0000;	????	
 132:	18 34       	jge	$+50     	;abs 0x164
 134:	00 03       	.word	0x0300;	????	
 136:	0e 3a       	jl	$-994    	;abs 0xfd54
 138:	0b 3b       	jl	$-488    	;abs 0xff50
 13a:	0b 49       	mov	r9,	r11	
 13c:	13 3f       	jmp	$-472    	;abs 0xff64
 13e:	0c 02       	.word	0x020c;	????	
 140:	0a 00       	.word	0x000a;	????	
 142:	00 00       	.word	0x0000;	????	
 144:	01 11       	rra	r1		
 146:	01 25       	jz	$+516    	;abs 0x34a
 148:	0e 13       	reti			;return from interupt
 14a:	0b 03       	.word	0x030b;	????	
 14c:	0e 1b       	.word	0x1b0e;	????	
 14e:	0e 11       	rra	r14		
 150:	01 12       	push	r1		
 152:	01 10       	rrc	r1		
 154:	06 00       	.word	0x0006;	????	
 156:	00 02       	.word	0x0200;	????	
 158:	13 01       	.word	0x0113;	????	
 15a:	0b 0b       	.word	0x0b0b;	????	
 15c:	3a 0b       	.word	0x0b3a;	????	
 15e:	3b 0b       	.word	0x0b3b;	????	
 160:	01 13       	reti			;return from interupt
 162:	00 00       	.word	0x0000;	????	
 164:	03 0d       	.word	0x0d03;	????	
 166:	00 03       	.word	0x0300;	????	
 168:	08 3a       	jl	$-1006   	;abs 0xfd7a
 16a:	0b 3b       	jl	$-488    	;abs 0xff82
 16c:	0b 49       	mov	r9,	r11	
 16e:	13 38       	jl	$+40     	;abs 0x196
 170:	0a 00       	.word	0x000a;	????	
 172:	00 04       	.word	0x0400;	????	
 174:	01 01       	.word	0x0101;	????	
 176:	49 13       	.word	0x1349;	????	
 178:	01 13       	reti			;return from interupt
 17a:	00 00       	.word	0x0000;	????	
 17c:	05 21       	jnz	$+524    	;abs 0x388
 17e:	00 49       	br	r9		
 180:	13 2f       	jc	$-472    	;abs 0xffa8
 182:	0b 00       	.word	0x000b;	????	
 184:	00 06       	.word	0x0600;	????	
 186:	24 00       	.word	0x0024;	????	
 188:	0b 0b       	.word	0x0b0b;	????	
 18a:	3e 0b       	.word	0x0b3e;	????	
 18c:	03 0e       	.word	0x0e03;	????	
 18e:	00 00       	.word	0x0000;	????	
 190:	07 16       	.word	0x1607;	????	
 192:	00 03       	.word	0x0300;	????	
 194:	0e 3a       	jl	$-994    	;abs 0xfdb2
 196:	0b 3b       	jl	$-488    	;abs 0xffae
 198:	0b 49       	mov	r9,	r11	
 19a:	13 00       	.word	0x0013;	????	
 19c:	00 08       	.word	0x0800;	????	
 19e:	0d 00       	.word	0x000d;	????	
 1a0:	03 0e       	.word	0x0e03;	????	
 1a2:	3a 0b       	.word	0x0b3a;	????	
 1a4:	3b 0b       	.word	0x0b3b;	????	
 1a6:	49 13       	.word	0x1349;	????	
 1a8:	38 0a       	.word	0x0a38;	????	
 1aa:	00 00       	.word	0x0000;	????	
 1ac:	09 0f       	.word	0x0f09;	????	
 1ae:	00 0b       	.word	0x0b00;	????	
 1b0:	0b 49       	mov	r9,	r11	
 1b2:	13 00       	.word	0x0013;	????	
 1b4:	00 0a       	.word	0x0a00;	????	
 1b6:	26 00       	.word	0x0026;	????	
 1b8:	49 13       	.word	0x1349;	????	
 1ba:	00 00       	.word	0x0000;	????	
 1bc:	0b 15       	.word	0x150b;	????	
 1be:	01 27       	jz	$-508    	;abs 0xffc2
 1c0:	0c 49       	mov	r9,	r12	
 1c2:	13 01       	.word	0x0113;	????	
 1c4:	13 00       	.word	0x0013;	????	
 1c6:	00 0c       	.word	0x0c00;	????	
 1c8:	05 00       	.word	0x0005;	????	
 1ca:	49 13       	.word	0x1349;	????	
 1cc:	00 00       	.word	0x0000;	????	
 1ce:	0d 24       	jz	$+28     	;abs 0x1ea
 1d0:	00 0b       	.word	0x0b00;	????	
 1d2:	0b 3e       	jmp	$-1000   	;abs 0xfdea
 1d4:	0b 03       	.word	0x030b;	????	
 1d6:	08 00       	.word	0x0008;	????	
 1d8:	00 0e       	.word	0x0e00;	????	
 1da:	21 00       	.word	0x0021;	????	
 1dc:	49 13       	.word	0x1349;	????	
 1de:	00 00       	.word	0x0000;	????	
 1e0:	0f 2e       	jc	$-992    	;abs 0xfe00
 1e2:	01 3f       	jmp	$-508    	;abs 0xffe6
 1e4:	0c 03       	.word	0x030c;	????	
 1e6:	0e 3a       	jl	$-994    	;abs 0xfe04
 1e8:	0b 3b       	jl	$-488    	;abs 0x0
 1ea:	0b 27       	jz	$-488    	;abs 0x2
 1ec:	0c 49       	mov	r9,	r12	
 1ee:	13 11       	rra	#1		;r3 As==01
 1f0:	01 12       	push	r1		
 1f2:	01 40       	mov	r0,	r1	
 1f4:	0a 01       	.word	0x010a;	????	
 1f6:	13 00       	.word	0x0013;	????	
 1f8:	00 10       	rrc	r0		
 1fa:	05 00       	.word	0x0005;	????	
 1fc:	03 08       	.word	0x0803;	????	
 1fe:	3a 0b       	.word	0x0b3a;	????	
 200:	3b 0b       	.word	0x0b3b;	????	
 202:	49 13       	.word	0x1349;	????	
 204:	02 06       	.word	0x0602;	????	
 206:	00 00       	.word	0x0000;	????	
 208:	11 34       	jge	$+36     	;abs 0x22c
 20a:	00 03       	.word	0x0300;	????	
 20c:	08 3a       	jl	$-1006   	;abs 0xfe1e
 20e:	0b 3b       	jl	$-488    	;abs 0x26
 210:	0b 49       	mov	r9,	r11	
 212:	13 02       	.word	0x0213;	????	
 214:	06 00       	.word	0x0006;	????	
 216:	00 12       	push	r0		
 218:	2e 01       	.word	0x012e;	????	
 21a:	3f 0c       	.word	0x0c3f;	????	
 21c:	03 0e       	.word	0x0e03;	????	
 21e:	3a 0b       	.word	0x0b3a;	????	
 220:	3b 0b       	.word	0x0b3b;	????	
 222:	27 0c       	.word	0x0c27;	????	
 224:	49 13       	.word	0x1349;	????	
 226:	11 01       	.word	0x0111;	????	
 228:	12 01       	.word	0x0112;	????	
 22a:	40 06       	.word	0x0640;	????	
 22c:	01 13       	reti			;return from interupt
 22e:	00 00       	.word	0x0000;	????	
 230:	13 05       	.word	0x0513;	????	
 232:	00 03       	.word	0x0300;	????	
 234:	0e 3a       	jl	$-994    	;abs 0xfe52
 236:	0b 3b       	jl	$-488    	;abs 0x4e
 238:	0b 49       	mov	r9,	r11	
 23a:	13 02       	.word	0x0213;	????	
 23c:	06 00       	.word	0x0006;	????	
 23e:	00 14       	.word	0x1400;	????	
 240:	05 00       	.word	0x0005;	????	
 242:	03 0e       	.word	0x0e03;	????	
 244:	3a 0b       	.word	0x0b3a;	????	
 246:	3b 0b       	.word	0x0b3b;	????	
 248:	49 13       	.word	0x1349;	????	
 24a:	02 0a       	.word	0x0a02;	????	
 24c:	00 00       	.word	0x0000;	????	
 24e:	15 05       	.word	0x0515;	????	
 250:	00 03       	.word	0x0300;	????	
 252:	08 3a       	jl	$-1006   	;abs 0xfe64
 254:	0b 3b       	jl	$-488    	;abs 0x6c
 256:	0b 49       	mov	r9,	r11	
 258:	13 02       	.word	0x0213;	????	
 25a:	0a 00       	.word	0x000a;	????	
 25c:	00 16       	.word	0x1600;	????	
 25e:	34 00       	.word	0x0034;	????	
 260:	03 0e       	.word	0x0e03;	????	
 262:	3a 0b       	.word	0x0b3a;	????	
 264:	3b 0b       	.word	0x0b3b;	????	
 266:	49 13       	.word	0x1349;	????	
 268:	02 06       	.word	0x0602;	????	
 26a:	00 00       	.word	0x0000;	????	
 26c:	17 34       	jge	$+48     	;abs 0x29c
 26e:	00 03       	.word	0x0300;	????	
 270:	0e 3a       	jl	$-994    	;abs 0xfe8e
 272:	0b 3b       	jl	$-488    	;abs 0x8a
 274:	0b 49       	mov	r9,	r11	
 276:	13 02       	.word	0x0213;	????	
 278:	0a 00       	.word	0x000a;	????	
 27a:	00 00       	.word	0x0000;	????	
 27c:	01 11       	rra	r1		
 27e:	01 25       	jz	$+516    	;abs 0x482
 280:	0e 13       	reti			;return from interupt
 282:	0b 03       	.word	0x030b;	????	
 284:	0e 1b       	.word	0x1b0e;	????	
 286:	0e 11       	rra	r14		
 288:	01 12       	push	r1		
 28a:	01 10       	rrc	r1		
 28c:	06 00       	.word	0x0006;	????	
 28e:	00 02       	.word	0x0200;	????	
 290:	16 00       	.word	0x0016;	????	
 292:	03 0e       	.word	0x0e03;	????	
 294:	3a 0b       	.word	0x0b3a;	????	
 296:	3b 0b       	.word	0x0b3b;	????	
 298:	49 13       	.word	0x1349;	????	
 29a:	00 00       	.word	0x0000;	????	
 29c:	03 0f       	.word	0x0f03;	????	
 29e:	00 0b       	.word	0x0b00;	????	
 2a0:	0b 03       	.word	0x030b;	????	
 2a2:	0e 00       	.word	0x000e;	????	
 2a4:	00 04       	.word	0x0400;	????	
 2a6:	2e 01       	.word	0x012e;	????	
 2a8:	03 0e       	.word	0x0e03;	????	
 2aa:	3a 0b       	.word	0x0b3a;	????	
 2ac:	3b 0b       	.word	0x0b3b;	????	
 2ae:	27 0c       	.word	0x0c27;	????	
 2b0:	11 01       	.word	0x0111;	????	
 2b2:	12 01       	.word	0x0112;	????	
 2b4:	40 06       	.word	0x0640;	????	
 2b6:	01 13       	reti			;return from interupt
 2b8:	00 00       	.word	0x0000;	????	
 2ba:	05 05       	.word	0x0505;	????	
 2bc:	00 03       	.word	0x0300;	????	
 2be:	08 3a       	jl	$-1006   	;abs 0xfed0
 2c0:	0b 3b       	jl	$-488    	;abs 0xd8
 2c2:	0b 49       	mov	r9,	r11	
 2c4:	13 02       	.word	0x0213;	????	
 2c6:	06 00       	.word	0x0006;	????	
 2c8:	00 06       	.word	0x0600;	????	
 2ca:	34 00       	.word	0x0034;	????	
 2cc:	03 08       	.word	0x0803;	????	
 2ce:	3a 0b       	.word	0x0b3a;	????	
 2d0:	3b 0b       	.word	0x0b3b;	????	
 2d2:	49 13       	.word	0x1349;	????	
 2d4:	02 06       	.word	0x0602;	????	
 2d6:	00 00       	.word	0x0000;	????	
 2d8:	07 24       	jz	$+16     	;abs 0x2e8
 2da:	00 0b       	.word	0x0b00;	????	
 2dc:	0b 3e       	jmp	$-1000   	;abs 0xfef4
 2de:	0b 03       	.word	0x030b;	????	
 2e0:	0e 00       	.word	0x000e;	????	
 2e2:	00 08       	.word	0x0800;	????	
 2e4:	0f 00       	.word	0x000f;	????	
 2e6:	0b 0b       	.word	0x0b0b;	????	
 2e8:	49 13       	.word	0x1349;	????	
 2ea:	00 00       	.word	0x0000;	????	
 2ec:	09 26       	jz	$-1004   	;abs 0xff00
 2ee:	00 49       	br	r9		
 2f0:	13 00       	.word	0x0013;	????	
 2f2:	00 0a       	.word	0x0a00;	????	
 2f4:	2e 01       	.word	0x012e;	????	
 2f6:	03 0e       	.word	0x0e03;	????	
 2f8:	3a 0b       	.word	0x0b3a;	????	
 2fa:	3b 0b       	.word	0x0b3b;	????	
 2fc:	27 0c       	.word	0x0c27;	????	
 2fe:	11 01       	.word	0x0111;	????	
 300:	12 01       	.word	0x0112;	????	
 302:	40 0a       	.word	0x0a40;	????	
 304:	01 13       	reti			;return from interupt
 306:	00 00       	.word	0x0000;	????	
 308:	0b 34       	jge	$+24     	;abs 0x320
 30a:	00 03       	.word	0x0300;	????	
 30c:	08 3a       	jl	$-1006   	;abs 0xff1e
 30e:	0b 3b       	jl	$-488    	;abs 0x126
 310:	0b 49       	mov	r9,	r11	
 312:	13 02       	.word	0x0213;	????	
 314:	0a 00       	.word	0x000a;	????	
 316:	00 0c       	.word	0x0c00;	????	
 318:	01 01       	.word	0x0101;	????	
 31a:	49 13       	.word	0x1349;	????	
 31c:	01 13       	reti			;return from interupt
 31e:	00 00       	.word	0x0000;	????	
 320:	0d 21       	jnz	$+540    	;abs 0x53c
 322:	00 49       	br	r9		
 324:	13 2f       	jc	$-472    	;abs 0x14c
 326:	0b 00       	.word	0x000b;	????	
 328:	00 0e       	.word	0x0e00;	????	
 32a:	2e 01       	.word	0x012e;	????	
 32c:	3f 0c       	.word	0x0c3f;	????	
 32e:	03 0e       	.word	0x0e03;	????	
 330:	3a 0b       	.word	0x0b3a;	????	
 332:	3b 0b       	.word	0x0b3b;	????	
 334:	27 0c       	.word	0x0c27;	????	
 336:	11 01       	.word	0x0111;	????	
 338:	12 01       	.word	0x0112;	????	
 33a:	40 06       	.word	0x0640;	????	
 33c:	01 13       	reti			;return from interupt
 33e:	00 00       	.word	0x0000;	????	
 340:	0f 05       	.word	0x050f;	????	
 342:	00 03       	.word	0x0300;	????	
 344:	0e 3a       	jl	$-994    	;abs 0xff62
 346:	0b 3b       	jl	$-488    	;abs 0x15e
 348:	0b 49       	mov	r9,	r11	
 34a:	13 02       	.word	0x0213;	????	
 34c:	06 00       	.word	0x0006;	????	
 34e:	00 10       	rrc	r0		
 350:	24 00       	.word	0x0024;	????	
 352:	0b 0b       	.word	0x0b0b;	????	
 354:	3e 0b       	.word	0x0b3e;	????	
 356:	03 08       	.word	0x0803;	????	
 358:	00 00       	.word	0x0000;	????	
 35a:	11 34       	jge	$+36     	;abs 0x37e
 35c:	00 03       	.word	0x0300;	????	
 35e:	0e 3a       	jl	$-994    	;abs 0xff7c
 360:	0b 3b       	jl	$-488    	;abs 0x178
 362:	0b 49       	mov	r9,	r11	
 364:	13 02       	.word	0x0213;	????	
 366:	0a 00       	.word	0x000a;	????	
 368:	00 12       	push	r0		
 36a:	18 00       	.word	0x0018;	????	
 36c:	00 00       	.word	0x0000;	????	
 36e:	13 0a       	.word	0x0a13;	????	
 370:	00 03       	.word	0x0300;	????	
 372:	0e 3a       	jl	$-994    	;abs 0xff90
 374:	0b 3b       	jl	$-488    	;abs 0x18c
 376:	0b 11       	rra	r11		
 378:	01 00       	.word	0x0001;	????	
 37a:	00 00       	.word	0x0000;	????	
 37c:	01 11       	rra	r1		
 37e:	01 25       	jz	$+516    	;abs 0x582
 380:	0e 13       	reti			;return from interupt
 382:	0b 03       	.word	0x030b;	????	
 384:	0e 1b       	.word	0x1b0e;	????	
 386:	0e 11       	rra	r14		
 388:	01 12       	push	r1		
 38a:	01 10       	rrc	r1		
 38c:	06 00       	.word	0x0006;	????	
 38e:	00 02       	.word	0x0200;	????	
 390:	2e 01       	.word	0x012e;	????	
 392:	3f 0c       	.word	0x0c3f;	????	
 394:	03 0e       	.word	0x0e03;	????	
 396:	3a 0b       	.word	0x0b3a;	????	
 398:	3b 0b       	.word	0x0b3b;	????	
 39a:	27 0c       	.word	0x0c27;	????	
 39c:	11 01       	.word	0x0111;	????	
 39e:	12 01       	.word	0x0112;	????	
 3a0:	40 0a       	.word	0x0a40;	????	
 3a2:	01 13       	reti			;return from interupt
 3a4:	00 00       	.word	0x0000;	????	
 3a6:	03 05       	.word	0x0503;	????	
 3a8:	00 03       	.word	0x0300;	????	
 3aa:	08 3a       	jl	$-1006   	;abs 0xffbc
 3ac:	0b 3b       	jl	$-488    	;abs 0x1c4
 3ae:	0b 49       	mov	r9,	r11	
 3b0:	13 02       	.word	0x0213;	????	
 3b2:	06 00       	.word	0x0006;	????	
 3b4:	00 04       	.word	0x0400;	????	
 3b6:	24 00       	.word	0x0024;	????	
 3b8:	0b 0b       	.word	0x0b0b;	????	
 3ba:	3e 0b       	.word	0x0b3e;	????	
 3bc:	03 0e       	.word	0x0e03;	????	
 3be:	00 00       	.word	0x0000;	????	
 3c0:	05 2e       	jc	$-1012   	;abs 0xffcc
 3c2:	00 3f       	jmp	$-510    	;abs 0x1c4
 3c4:	0c 03       	.word	0x030c;	????	
 3c6:	0e 3a       	jl	$-994    	;abs 0xffe4
 3c8:	0b 3b       	jl	$-488    	;abs 0x1e0
 3ca:	0b 49       	mov	r9,	r11	
 3cc:	13 11       	rra	#1		;r3 As==01
 3ce:	01 12       	push	r1		
 3d0:	01 40       	mov	r0,	r1	
 3d2:	0a 00       	.word	0x000a;	????	
 3d4:	00 00       	.word	0x0000;	????	
 3d6:	01 11       	rra	r1		
 3d8:	01 25       	jz	$+516    	;abs 0x5dc
 3da:	0e 13       	reti			;return from interupt
 3dc:	0b 03       	.word	0x030b;	????	
 3de:	0e 1b       	.word	0x1b0e;	????	
 3e0:	0e 11       	rra	r14		
 3e2:	01 12       	push	r1		
 3e4:	01 10       	rrc	r1		
 3e6:	06 00       	.word	0x0006;	????	
 3e8:	00 02       	.word	0x0200;	????	
 3ea:	24 00       	.word	0x0024;	????	
 3ec:	0b 0b       	.word	0x0b0b;	????	
 3ee:	3e 0b       	.word	0x0b3e;	????	
 3f0:	03 0e       	.word	0x0e03;	????	
 3f2:	00 00       	.word	0x0000;	????	
 3f4:	03 24       	jz	$+8      	;abs 0x3fc
 3f6:	00 0b       	.word	0x0b00;	????	
 3f8:	0b 3e       	jmp	$-1000   	;abs 0x10
 3fa:	0b 03       	.word	0x030b;	????	
 3fc:	08 00       	.word	0x0008;	????	
 3fe:	00 04       	.word	0x0400;	????	
 400:	2e 01       	.word	0x012e;	????	
 402:	3f 0c       	.word	0x0c3f;	????	
 404:	03 0e       	.word	0x0e03;	????	
 406:	3a 0b       	.word	0x0b3a;	????	
 408:	3b 0b       	.word	0x0b3b;	????	
 40a:	27 0c       	.word	0x0c27;	????	
 40c:	11 01       	.word	0x0111;	????	
 40e:	12 01       	.word	0x0112;	????	
 410:	40 0a       	.word	0x0a40;	????	
 412:	01 13       	reti			;return from interupt
 414:	00 00       	.word	0x0000;	????	
 416:	05 05       	.word	0x0505;	????	
 418:	00 03       	.word	0x0300;	????	
 41a:	0e 3a       	jl	$-994    	;abs 0x38
 41c:	0b 3b       	jl	$-488    	;abs 0x234
 41e:	0b 49       	mov	r9,	r11	
 420:	13 02       	.word	0x0213;	????	
 422:	0a 00       	.word	0x000a;	????	
 424:	00 06       	.word	0x0600;	????	
 426:	05 00       	.word	0x0005;	????	
 428:	03 0e       	.word	0x0e03;	????	
 42a:	3a 0b       	.word	0x0b3a;	????	
 42c:	3b 0b       	.word	0x0b3b;	????	
 42e:	49 13       	.word	0x1349;	????	
 430:	02 06       	.word	0x0602;	????	
 432:	00 00       	.word	0x0000;	????	
 434:	07 2e       	jc	$-1008   	;abs 0x44
 436:	00 3f       	jmp	$-510    	;abs 0x238
 438:	0c 03       	.word	0x030c;	????	
 43a:	0e 3a       	jl	$-994    	;abs 0x58
 43c:	0b 3b       	jl	$-488    	;abs 0x254
 43e:	0b 49       	mov	r9,	r11	
 440:	13 11       	rra	#1		;r3 As==01
 442:	01 12       	push	r1		
 444:	01 40       	mov	r0,	r1	
 446:	0a 00       	.word	0x000a;	????	
 448:	00 08       	.word	0x0800;	????	
 44a:	34 00       	.word	0x0034;	????	
 44c:	03 0e       	.word	0x0e03;	????	
 44e:	3a 0b       	.word	0x0b3a;	????	
 450:	3b 0b       	.word	0x0b3b;	????	
 452:	87 40 0e 49 	mov	r0,	18702(r7);0x490e(r7)
 456:	13 3f       	jmp	$-472    	;abs 0x27e
 458:	0c 3c       	jmp	$+26     	;abs 0x472
 45a:	0c 00       	.word	0x000c;	????	
 45c:	00 09       	.word	0x0900;	????	
 45e:	35 00       	.word	0x0035;	????	
 460:	49 13       	.word	0x1349;	????	
 462:	00 00       	.word	0x0000;	????	
 464:	0a 34       	jge	$+22     	;abs 0x47a
 466:	00 03       	.word	0x0300;	????	
 468:	0e 3a       	jl	$-994    	;abs 0x86
 46a:	0b 3b       	jl	$-488    	;abs 0x282
 46c:	05 87       	sub	r7,	r5	
 46e:	40 0e       	.word	0x0e40;	????	
 470:	49 13       	.word	0x1349;	????	
 472:	3f 0c       	.word	0x0c3f;	????	
 474:	3c 0c       	.word	0x0c3c;	????	
 476:	00 00       	.word	0x0000;	????	
 478:	0b 26       	jz	$-1000   	;abs 0x90
 47a:	00 49       	br	r9		
 47c:	13 00       	.word	0x0013;	????	
 47e:	00 00       	.word	0x0000;	????	
 480:	01 11       	rra	r1		
 482:	00 10       	rrc	r0		
 484:	06 11       	rra	r6		
 486:	01 12       	push	r1		
 488:	01 03       	.word	0x0301;	????	
 48a:	08 1b       	.word	0x1b08;	????	
 48c:	08 25       	jz	$+530    	;abs 0x69e
 48e:	08 13       	reti			;return from interupt
 490:	05 00       	.word	0x0005;	????	
 492:	00 00       	.word	0x0000;	????	
 494:	01 11       	rra	r1		
 496:	00 10       	rrc	r0		
 498:	06 11       	rra	r6		
 49a:	01 12       	push	r1		
 49c:	01 03       	.word	0x0301;	????	
 49e:	08 1b       	.word	0x1b08;	????	
 4a0:	08 25       	jz	$+530    	;abs 0x6b2
 4a2:	08 13       	reti			;return from interupt
 4a4:	05 00       	.word	0x0005;	????	
 4a6:	00 00       	.word	0x0000;	????	
 4a8:	01 11       	rra	r1		
 4aa:	01 25       	jz	$+516    	;abs 0x6ae
 4ac:	0e 13       	reti			;return from interupt
 4ae:	0b 03       	.word	0x030b;	????	
 4b0:	0e 1b       	.word	0x1b0e;	????	
 4b2:	0e 11       	rra	r14		
 4b4:	01 12       	push	r1		
 4b6:	01 10       	rrc	r1		
 4b8:	06 00       	.word	0x0006;	????	
 4ba:	00 02       	.word	0x0200;	????	
 4bc:	24 00       	.word	0x0024;	????	
 4be:	0b 0b       	.word	0x0b0b;	????	
 4c0:	3e 0b       	.word	0x0b3e;	????	
 4c2:	03 0e       	.word	0x0e03;	????	
 4c4:	00 00       	.word	0x0000;	????	
 4c6:	03 24       	jz	$+8      	;abs 0x4ce
 4c8:	00 0b       	.word	0x0b00;	????	
 4ca:	0b 3e       	jmp	$-1000   	;abs 0xe2
 4cc:	0b 03       	.word	0x030b;	????	
 4ce:	08 00       	.word	0x0008;	????	
 4d0:	00 04       	.word	0x0400;	????	
 4d2:	16 00       	.word	0x0016;	????	
 4d4:	03 0e       	.word	0x0e03;	????	
 4d6:	3a 0b       	.word	0x0b3a;	????	
 4d8:	3b 0b       	.word	0x0b3b;	????	
 4da:	49 13       	.word	0x1349;	????	
 4dc:	00 00       	.word	0x0000;	????	
 4de:	05 2e       	jc	$-1012   	;abs 0xea
 4e0:	01 3f       	jmp	$-508    	;abs 0x2e4
 4e2:	0c 03       	.word	0x030c;	????	
 4e4:	0e 3a       	jl	$-994    	;abs 0x102
 4e6:	0b 3b       	jl	$-488    	;abs 0x2fe
 4e8:	0b 27       	jz	$-488    	;abs 0x300
 4ea:	0c 49       	mov	r9,	r12	
 4ec:	13 11       	rra	#1		;r3 As==01
 4ee:	01 12       	push	r1		
 4f0:	01 40       	mov	r0,	r1	
 4f2:	06 01       	.word	0x0106;	????	
 4f4:	13 00       	.word	0x0013;	????	
 4f6:	00 06       	.word	0x0600;	????	
 4f8:	05 00       	.word	0x0005;	????	
 4fa:	03 0e       	.word	0x0e03;	????	
 4fc:	3a 0b       	.word	0x0b3a;	????	
 4fe:	3b 0b       	.word	0x0b3b;	????	
 500:	49 13       	.word	0x1349;	????	
 502:	02 0a       	.word	0x0a02;	????	
 504:	00 00       	.word	0x0000;	????	
 506:	07 05       	.word	0x0507;	????	
 508:	00 03       	.word	0x0300;	????	
 50a:	08 3a       	jl	$-1006   	;abs 0x11c
 50c:	0b 3b       	jl	$-488    	;abs 0x324
 50e:	0b 49       	mov	r9,	r11	
 510:	13 02       	.word	0x0213;	????	
 512:	06 00       	.word	0x0006;	????	
 514:	00 08       	.word	0x0800;	????	
 516:	05 00       	.word	0x0005;	????	
 518:	03 0e       	.word	0x0e03;	????	
 51a:	3a 0b       	.word	0x0b3a;	????	
 51c:	3b 0b       	.word	0x0b3b;	????	
 51e:	49 13       	.word	0x1349;	????	
 520:	02 06       	.word	0x0602;	????	
 522:	00 00       	.word	0x0000;	????	
 524:	09 34       	jge	$+20     	;abs 0x538
 526:	00 03       	.word	0x0300;	????	
 528:	08 3a       	jl	$-1006   	;abs 0x13a
 52a:	0b 3b       	jl	$-488    	;abs 0x342
 52c:	0b 49       	mov	r9,	r11	
 52e:	13 02       	.word	0x0213;	????	
 530:	06 00       	.word	0x0006;	????	
 532:	00 0a       	.word	0x0a00;	????	
 534:	0f 00       	.word	0x000f;	????	
 536:	0b 0b       	.word	0x0b0b;	????	
 538:	00 00       	.word	0x0000;	????	
 53a:	0b 0f       	.word	0x0f0b;	????	
 53c:	00 0b       	.word	0x0b00;	????	
 53e:	0b 49       	mov	r9,	r11	
 540:	13 00       	.word	0x0013;	????	
 542:	00 00       	.word	0x0000;	????	
 544:	01 11       	rra	r1		
 546:	00 10       	rrc	r0		
 548:	06 11       	rra	r6		
 54a:	01 12       	push	r1		
 54c:	01 03       	.word	0x0301;	????	
 54e:	08 1b       	.word	0x1b08;	????	
 550:	08 25       	jz	$+530    	;abs 0x762
 552:	08 13       	reti			;return from interupt
 554:	05 00       	.word	0x0005;	????	
 556:	00 00       	.word	0x0000;	????	
 558:	01 11       	rra	r1		
 55a:	00 10       	rrc	r0		
 55c:	06 11       	rra	r6		
 55e:	01 12       	push	r1		
 560:	01 03       	.word	0x0301;	????	
 562:	08 1b       	.word	0x1b08;	????	
 564:	08 25       	jz	$+530    	;abs 0x776
 566:	08 13       	reti			;return from interupt
 568:	05 00       	.word	0x0005;	????	
 56a:	00 00       	.word	0x0000;	????	
 56c:	01 11       	rra	r1		
 56e:	00 10       	rrc	r0		
 570:	06 11       	rra	r6		
 572:	01 12       	push	r1		
 574:	01 03       	.word	0x0301;	????	
 576:	08 1b       	.word	0x1b08;	????	
 578:	08 25       	jz	$+530    	;abs 0x78a
 57a:	08 13       	reti			;return from interupt
 57c:	05 00       	.word	0x0005;	????	
 57e:	00 00       	.word	0x0000;	????	
 580:	01 11       	rra	r1		
 582:	00 10       	rrc	r0		
 584:	06 11       	rra	r6		
 586:	01 12       	push	r1		
 588:	01 03       	.word	0x0301;	????	
 58a:	08 1b       	.word	0x1b08;	????	
 58c:	08 25       	jz	$+530    	;abs 0x79e
 58e:	08 13       	reti			;return from interupt
 590:	05 00       	.word	0x0005;	????	
 592:	00 00       	.word	0x0000;	????	
 594:	01 11       	rra	r1		
 596:	00 10       	rrc	r0		
 598:	06 11       	rra	r6		
 59a:	01 12       	push	r1		
 59c:	01 03       	.word	0x0301;	????	
 59e:	08 1b       	.word	0x1b08;	????	
 5a0:	08 25       	jz	$+530    	;abs 0x7b2
 5a2:	08 13       	reti			;return from interupt
 5a4:	05 00       	.word	0x0005;	????	
 5a6:	00 00       	.word	0x0000;	????	
 5a8:	01 11       	rra	r1		
 5aa:	00 10       	rrc	r0		
 5ac:	06 11       	rra	r6		
 5ae:	01 12       	push	r1		
 5b0:	01 03       	.word	0x0301;	????	
 5b2:	08 1b       	.word	0x1b08;	????	
 5b4:	08 25       	jz	$+530    	;abs 0x7c6
 5b6:	08 13       	reti			;return from interupt
 5b8:	05 00       	.word	0x0005;	????	
	...

Disassembly of section .debug_line:

00000000 <.debug_line>:
   0:	d2 01       	.word	0x01d2;	????	
   2:	00 00       	.word	0x0000;	????	
   4:	02 00       	.word	0x0002;	????	
   6:	13 01       	.word	0x0113;	????	
   8:	00 00       	.word	0x0000;	????	
   a:	01 01       	.word	0x0101;	????	
   c:	fb 0e       	.word	0x0efb;	????	
   e:	0d 00       	.word	0x000d;	????	
  10:	01 01       	.word	0x0101;	????	
  12:	01 01       	.word	0x0101;	????	
  14:	00 00       	.word	0x0000;	????	
  16:	00 01       	.word	0x0100;	????	
  18:	00 00       	.word	0x0000;	????	
  1a:	01 2f       	jc	$-508    	;abs 0xfe1e
  1c:	68 6f       	addc.b	@r15,	r8	
  1e:	6d 65       	addc.b	@r5,	r13	
  20:	2f 6d       	addc	@r13,	r15	
  22:	61 63       	addc.b	#2,	r1	;r3 As==10
  24:	2f 2e       	jc	$-928    	;abs 0xfc84
  26:	6c 6f       	addc.b	@r15,	r12	
  28:	63 61       	.word	0x6163;	????	Illegal as 2-op instr
  2a:	6c 2f       	jc	$-294    	;abs 0xff04
  2c:	65 6e       	addc.b	@r14,	r5	
  2e:	65 72       	subc.b	#4,	r5	;r2 As==10
  30:	67 69       	addc.b	@r9,	r7	
  32:	61 2f       	jc	$-316    	;abs 0xfef6
  34:	68 61       	addc.b	@r1,	r8	
  36:	72 64       	addc.b	@r4+,	r2	
  38:	77 61       	addc.b	@r1+,	r7	
  3a:	72 65       	addc.b	@r5+,	r2	
  3c:	2f 74       	subc	@r4,	r15	
  3e:	6f 6f       	addc.b	@r15,	r15	
  40:	6c 73       	subc.b	#2,	r12	;r3 As==10
  42:	2f 6d       	addc	@r13,	r15	
  44:	73 70       	.word	0x7073;	????	Illegal as 2-op instr
  46:	34 33       	jn	$-406    	;abs 0xfeb0
  48:	30 2f       	jc	$-414    	;abs 0xfeaa
  4a:	62 69       	addc.b	@r9,	r2	
  4c:	6e 2f       	jc	$-290    	;abs 0xff2a
  4e:	2e 2e       	jc	$-930    	;abs 0xfcac
  50:	2f 6c       	addc	@r12,	r15	
  52:	69 62       	addc.b	#4,	r9	;r2 As==10
  54:	2f 67       	addc	@r7,	r15	
  56:	63 63       	.word	0x6363;	????	Illegal as 2-op instr
  58:	2f 6d       	addc	@r13,	r15	
  5a:	73 70       	.word	0x7073;	????	Illegal as 2-op instr
  5c:	34 33       	jn	$-406    	;abs 0xfec6
  5e:	30 2f       	jc	$-414    	;abs 0xfec0
  60:	34 2e       	jc	$-918    	;abs 0xfcca
  62:	36 2e       	jc	$-914    	;abs 0xfcd0
  64:	33 2f       	jc	$-408    	;abs 0xfecc
  66:	2e 2e       	jc	$-930    	;abs 0xfcc4
  68:	2f 2e       	jc	$-928    	;abs 0xfcc8
  6a:	2e 2f       	jc	$-418    	;abs 0xfec8
  6c:	2e 2e       	jc	$-930    	;abs 0xfcca
  6e:	2f 2e       	jc	$-928    	;abs 0xfcce
  70:	2e 2f       	jc	$-418    	;abs 0xfece
  72:	6d 73       	subc.b	#2,	r13	;r3 As==10
  74:	70 34       	jge	$+226    	;abs 0x156
  76:	33 30       	jn	$+104    	;abs 0xde
  78:	2f 69       	addc	@r9,	r15	
  7a:	6e 63       	addc.b	#2,	r14	;r3 As==10
  7c:	6c 75       	subc.b	@r5,	r12	
  7e:	64 65       	addc.b	@r5,	r4	
  80:	2f 6c       	addc	@r12,	r15	
  82:	69 62       	addc.b	#4,	r9	;r2 As==10
  84:	65 6d       	addc.b	@r13,	r5	
  86:	62 2f       	jc	$-314    	;abs 0xff4c
  88:	73 68       	.word	0x6873;	????	Illegal as 2-op instr
  8a:	65 6c       	addc.b	@r12,	r5	
  8c:	6c 00       	.word	0x006c;	????	
  8e:	2f 68       	addc	@r8,	r15	
  90:	6f 6d       	addc.b	@r13,	r15	
  92:	65 2f       	jc	$-308    	;abs 0xff5e
  94:	6d 61       	addc.b	@r1,	r13	
  96:	63 2f       	jc	$-312    	;abs 0xff5e
  98:	2e 6c       	addc	@r12,	r14	
  9a:	6f 63       	addc.b	#2,	r15	;r3 As==10
  9c:	61 6c       	addc.b	@r12,	r1	
  9e:	2f 65       	addc	@r5,	r15	
  a0:	6e 65       	addc.b	@r5,	r14	
  a2:	72 67       	addc.b	@r7+,	r2	
  a4:	69 61       	addc.b	@r1,	r9	
  a6:	2f 68       	addc	@r8,	r15	
  a8:	61 72       	subc.b	#4,	r1	;r2 As==10
  aa:	64 77       	subc.b	@r7,	r4	
  ac:	61 72       	subc.b	#4,	r1	;r2 As==10
  ae:	65 2f       	jc	$-308    	;abs 0xff7a
  b0:	74 6f       	addc.b	@r15+,	r4	
  b2:	6f 6c       	addc.b	@r12,	r15	
  b4:	73 2f       	jc	$-280    	;abs 0xff9c
  b6:	6d 73       	subc.b	#2,	r13	;r3 As==10
  b8:	70 34       	jge	$+226    	;abs 0x19a
  ba:	33 30       	jn	$+104    	;abs 0x122
  bc:	2f 62       	addc	#4,	r15	;r2 As==10
  be:	69 6e       	addc.b	@r14,	r9	
  c0:	2f 2e       	jc	$-928    	;abs 0xfd20
  c2:	2e 2f       	jc	$-418    	;abs 0xff20
  c4:	6c 69       	addc.b	@r9,	r12	
  c6:	62 2f       	jc	$-314    	;abs 0xff8c
  c8:	67 63       	addc.b	#2,	r7	;r3 As==10
  ca:	63 2f       	jc	$-312    	;abs 0xff92
  cc:	6d 73       	subc.b	#2,	r13	;r3 As==10
  ce:	70 34       	jge	$+226    	;abs 0x1b0
  d0:	33 30       	jn	$+104    	;abs 0x138
  d2:	2f 34       	jge	$+96     	;abs 0x132
  d4:	2e 36       	jge	$-930    	;abs 0xfd32
  d6:	2e 33       	jn	$-418    	;abs 0xff34
  d8:	2f 2e       	jc	$-928    	;abs 0xfd38
  da:	2e 2f       	jc	$-418    	;abs 0xff38
  dc:	2e 2e       	jc	$-930    	;abs 0xfd3a
  de:	2f 2e       	jc	$-928    	;abs 0xfd3e
  e0:	2e 2f       	jc	$-418    	;abs 0xff3e
  e2:	2e 2e       	jc	$-930    	;abs 0xfd40
  e4:	2f 6d       	addc	@r13,	r15	
  e6:	73 70       	.word	0x7073;	????	Illegal as 2-op instr
  e8:	34 33       	jn	$-406    	;abs 0xff52
  ea:	30 2f       	jc	$-414    	;abs 0xff4c
  ec:	69 6e       	addc.b	@r14,	r9	
  ee:	63 6c       	.word	0x6c63;	????	Illegal as 2-op instr
  f0:	75 64       	addc.b	@r4+,	r5	
  f2:	65 00       	.word	0x0065;	????	
  f4:	00 73       	sbc	r0		
  f6:	68 65       	addc.b	@r5,	r8	
  f8:	6c 6c       	addc.b	@r12,	r12	
  fa:	2e 63       	addc	#2,	r14	;r3 As==10
  fc:	00 00       	.word	0x0000;	????	
  fe:	00 00       	.word	0x0000;	????	
 100:	73 68       	.word	0x6873;	????	Illegal as 2-op instr
 102:	65 6c       	addc.b	@r12,	r5	
 104:	6c 2e       	jc	$-806    	;abs 0xfdde
 106:	68 00       	.word	0x0068;	????	
 108:	01 00       	.word	0x0001;	????	
 10a:	00 6d       	addc	r13,	r0	
 10c:	73 70       	.word	0x7073;	????	Illegal as 2-op instr
 10e:	34 33       	jn	$-406    	;abs 0xff78
 110:	30 67       	addc	@r7+,	r0	
 112:	32 35       	jge	$+614    	;abs 0x378
 114:	35 33       	jn	$-404    	;abs 0xff80
 116:	2e 68       	addc	@r8,	r14	
 118:	00 02       	.word	0x0200;	????	
 11a:	00 00       	.word	0x0000;	????	
 11c:	00 00       	.word	0x0000;	????	
 11e:	03 02       	.word	0x0203;	????	
 120:	ac c1 03 c1 	bic	@r1,	-16125(r12);0xc103(r12)
 124:	00 01       	.word	0x0100;	????	
 126:	69 00       	.word	0x0069;	????	
 128:	02 04       	.word	0x0402;	????	
 12a:	02 67       	addc	r7,	r2	
 12c:	00 02       	.word	0x0200;	????	
 12e:	04 02       	.word	0x0204;	????	
 130:	02 30       	jn	$+6      	;abs 0x136
 132:	11 00       	.word	0x0011;	????	
 134:	02 04       	.word	0x0402;	????	
 136:	01 06       	.word	0x0601;	????	
 138:	4a 06       	.word	0x064a;	????	
 13a:	be 2f       	jc	$-130    	;abs 0xb8
 13c:	4d 69       	addc.b	r9,	r13	
 13e:	84 00       	.word	0x0084;	????	
 140:	02 04       	.word	0x0402;	????	
 142:	02 67       	addc	r7,	r2	
 144:	00 02       	.word	0x0200;	????	
 146:	04 02       	.word	0x0204;	????	
 148:	08 ab       	dadd	r11,	r8	
 14a:	00 02       	.word	0x0200;	????	
 14c:	04 01       	.word	0x0104;	????	
 14e:	06 4a       	mov	r10,	r6	
 150:	06 da       	bis	r10,	r6	
 152:	2f 4d       	mov	@r13,	r15	
 154:	67 84       	sub.b	@r4,	r7	
 156:	2f 4d       	mov	@r13,	r15	
 158:	67 9f       	cmp.b	@r15,	r7	
 15a:	03 d7       	.word	0xd703;	????	Illegal as 2-op instr
 15c:	00 4a       	br	r10		
 15e:	30 08       	.word	0x0830;	????	
 160:	cb 4b bb f3 	mov.b	r11,	-3141(r11);0xf3bb(r11)
 164:	4f 2b       	jnc	$-352    	;abs 0x4
 166:	08 e7       	xor	r7,	r8	
 168:	31 4b       	mov	@r11+,	r1	
 16a:	bb f3 4f 2b 	and	#-1,	11087(r11);r3 As==11, 0x2b4f(r11)
 16e:	08 5b       	add	r11,	r8	
 170:	31 4b       	mov	@r11+,	r1	
 172:	bb 08       	.word	0x08bb;	????	
 174:	21 4f       	mov	@r15,	r1	
 176:	2b 02       	.word	0x022b;	????	
 178:	22 15       	.word	0x1522;	????	
 17a:	31 4b       	mov	@r11+,	r1	
 17c:	bb 08       	.word	0x08bb;	????	
 17e:	21 4f       	mov	@r15,	r1	
 180:	2b 08       	.word	0x082b;	????	
 182:	77 30       	jn	$+240    	;abs 0x272
 184:	9f 08       	.word	0x089f;	????	
 186:	75 4e       	mov.b	@r14+,	r5	
 188:	13 4b       	.word	0x4b13;	????	Illegal as 2-op instr
 18a:	4b 02       	.word	0x024b;	????	
 18c:	02 00       	.word	0x0002;	????	
 18e:	01 01       	.word	0x0101;	????	
 190:	00 03       	.word	0x0300;	????	
 192:	02 3e       	jmp	$-1018   	;abs 0xfd98
 194:	c0 03       	.word	0x03c0;	????	
 196:	e9 00       	.word	0x00e9;	????	
 198:	01 4c       	mov	r12,	r1	
 19a:	67 83       	decd.b	r7		
 19c:	84 67 67 bb 	addc	r7,	-17561(r4);0xbb67(r4)
 1a0:	67 68       	addc.b	@r8,	r7	
 1a2:	4b 9f       	cmp.b	r15,	r11	
 1a4:	9f 9f bc 67 	cmp	26556(r15),26727(r15);0x67bc(r15), 0x6867(r15)
 1a8:	67 68 
 1aa:	83 36       	jge	$-760    	;abs 0xfeb2
 1ac:	4b 08       	.word	0x084b;	????	
 1ae:	22 83       	decd	r2		
 1b0:	83 2f       	jc	$-248    	;abs 0xb8
 1b2:	67 67       	addc.b	@r7,	r7	
 1b4:	f3 67       	addc.b	@r7+,	#1	;r3 As==01
 1b6:	83 85       	sub	r5,	#1	;r3 As==01
 1b8:	08 21       	jnz	$+530    	;abs 0x3ca
 1ba:	84 00       	.word	0x0084;	????	
 1bc:	02 04       	.word	0x0402;	????	
 1be:	01 03       	.word	0x0301;	????	
 1c0:	74 82       	sub.b	#8,	r4	;r2 As==11
 1c2:	03 0f       	.word	0x0f03;	????	
 1c4:	82 84 08 cb 	sub	r4,	&0xcb08	
 1c8:	83 30       	jn	$+264    	;abs 0x2d0
 1ca:	83 30       	jn	$+264    	;abs 0x2d2
 1cc:	83 30       	jn	$+264    	;abs 0x2d4
 1ce:	30 83       	sub	#-1,	r0	;r3 As==11
 1d0:	83 02       	.word	0x0283;	????	
 1d2:	02 00       	.word	0x0002;	????	
 1d4:	01 01       	.word	0x0101;	????	
 1d6:	fe 00       	.word	0x00fe;	????	
 1d8:	00 00       	.word	0x0000;	????	
 1da:	02 00       	.word	0x0002;	????	
 1dc:	33 00       	.word	0x0033;	????	
 1de:	00 00       	.word	0x0000;	????	
 1e0:	01 01       	.word	0x0101;	????	
 1e2:	fb 0e       	.word	0x0efb;	????	
 1e4:	0d 00       	.word	0x000d;	????	
 1e6:	01 01       	.word	0x0101;	????	
 1e8:	01 01       	.word	0x0101;	????	
 1ea:	00 00       	.word	0x0000;	????	
 1ec:	00 01       	.word	0x0100;	????	
 1ee:	00 00       	.word	0x0000;	????	
 1f0:	01 2e       	jc	$-1020   	;abs 0xfdf4
 1f2:	2f 69       	addc	@r9,	r15	
 1f4:	6e 63       	addc.b	#2,	r14	;r3 As==10
 1f6:	6c 75       	subc.b	@r5,	r12	
 1f8:	64 65       	addc.b	@r5,	r4	
 1fa:	00 00       	.word	0x0000;	????	
 1fc:	73 68       	.word	0x6873;	????	Illegal as 2-op instr
 1fe:	65 6c       	addc.b	@r12,	r5	
 200:	6c 2e       	jc	$-806    	;abs 0xfeda
 202:	63 00       	.word	0x0063;	????	
 204:	00 00       	.word	0x0000;	????	
 206:	00 73       	sbc	r0		
 208:	68 65       	addc.b	@r5,	r8	
 20a:	6c 6c       	addc.b	@r12,	r12	
 20c:	2e 68       	addc	@r8,	r14	
 20e:	00 01       	.word	0x0100;	????	
 210:	00 00       	.word	0x0000;	????	
 212:	00 00       	.word	0x0000;	????	
 214:	03 02       	.word	0x0203;	????	
 216:	d2 c3 03 16 	bic.b	#1,	&0x1603	;r3 As==01
 21a:	01 2f       	jc	$-508    	;abs 0x1e
 21c:	30 00       	.word	0x0030;	????	
 21e:	02 04       	.word	0x0402;	????	
 220:	01 06       	.word	0x0601;	????	
 222:	4a 00       	.word	0x004a;	????	
 224:	02 04       	.word	0x0402;	????	
 226:	01 06       	.word	0x0601;	????	
 228:	46 00       	.word	0x0046;	????	
 22a:	02 04       	.word	0x0402;	????	
 22c:	01 4e       	mov	r14,	r1	
 22e:	69 31       	jn	$+724    	;abs 0x502
 230:	69 00       	.word	0x0069;	????	
 232:	02 04       	.word	0x0402;	????	
 234:	01 06       	.word	0x0601;	????	
 236:	4a 06       	.word	0x064a;	????	
 238:	46 89       	sub.b	r9,	r6	
 23a:	65 00       	.word	0x0065;	????	
 23c:	02 04       	.word	0x0402;	????	
 23e:	01 06       	.word	0x0601;	????	
 240:	2e 06       	.word	0x062e;	????	
 242:	50 00       	.word	0x0050;	????	
 244:	02 04       	.word	0x0402;	????	
 246:	01 06       	.word	0x0601;	????	
 248:	4a 06       	.word	0x064a;	????	
 24a:	03 78       	.word	0x7803;	????	Illegal as 2-op instr
 24c:	ba 03       	.word	0x03ba;	????	
 24e:	0c 4a       	mov	r10,	r12	
 250:	47 32       	jn	$-880    	;abs 0xfee0
 252:	85 14       	.word	0x1485;	????	
 254:	33 4c       	.word	0x4c33;	????	Illegal as 2-op instr
 256:	bc 00       	.word	0x00bc;	????	
 258:	02 04       	.word	0x0402;	????	
 25a:	01 08       	.word	0x0801;	????	
 25c:	38 6e       	addc	@r14+,	r8	
 25e:	4d da       	bis.b	r10,	r13	
 260:	2d 31       	jn	$+604    	;abs 0x4bc
 262:	84 68 00 02 	addc	r8,	512(r4)	;0x0200(r4)
 266:	04 01       	.word	0x0104;	????	
 268:	06 ba       	bit	r10,	r6	
 26a:	06 4c       	mov	r12,	r6	
 26c:	00 02       	.word	0x0200;	????	
 26e:	04 01       	.word	0x0104;	????	
 270:	06 4a       	mov	r10,	r6	
 272:	06 31       	jn	$+526    	;abs 0x480
 274:	4e bc       	bit.b	r12,	r14	
 276:	03 6a       	.word	0x6a03;	????	Illegal as 2-op instr
 278:	2e 00       	.word	0x002e;	????	
 27a:	02 04       	.word	0x0402;	????	
 27c:	02 06       	.word	0x0602;	????	
 27e:	66 00       	.word	0x0066;	????	
 280:	02 04       	.word	0x0402;	????	
 282:	02 06       	.word	0x0602;	????	
 284:	03 17       	.word	0x1703;	????	
 286:	08 20       	jnz	$+18     	;abs 0x298
 288:	00 02       	.word	0x0200;	????	
 28a:	04 02       	.word	0x0204;	????	
 28c:	65 00       	.word	0x0065;	????	
 28e:	02 04       	.word	0x0402;	????	
 290:	01 06       	.word	0x0601;	????	
 292:	2e 06       	.word	0x062e;	????	
 294:	4d 03       	.word	0x034d;	????	
 296:	78 08       	.word	0x0878;	????	
 298:	3c 03       	.word	0x033c;	????	
 29a:	76 2e       	jc	$-786    	;abs 0xff88
 29c:	00 02       	.word	0x0200;	????	
 29e:	04 01       	.word	0x0104;	????	
 2a0:	06 2e       	jc	$-1010   	;abs 0xfeae
 2a2:	06 03       	.word	0x0306;	????	
 2a4:	18 4a 4c 03 	mov	844(r10),r8	;0x034c(r10)
 2a8:	68 4a       	mov.b	@r10,	r8	
 2aa:	03 0b       	.word	0x0b03;	????	
 2ac:	4a 03       	.word	0x034a;	????	
 2ae:	0e 2e       	jc	$-994    	;abs 0xfecc
 2b0:	f5 03       	.word	0x03f5;	????	
 2b2:	19 08       	.word	0x0819;	????	
 2b4:	3c 03       	.word	0x033c;	????	
 2b6:	6f 2e       	jc	$-800    	;abs 0xff96
 2b8:	4c 83       	sub.b	#0,	r12	;r3 As==00
 2ba:	a0 08       	.word	0x08a0;	????	
 2bc:	3d a0 4c 4d 	dadd	#19788,	r13	;#0x4d4c
 2c0:	03 73       	sbc	#0		;r3 As==00
 2c2:	08 3c       	jmp	$+18     	;abs 0x2d4
 2c4:	00 02       	.word	0x0200;	????	
 2c6:	04 01       	.word	0x0104;	????	
 2c8:	06 2e       	jc	$-1010   	;abs 0xfed6
 2ca:	06 03       	.word	0x0306;	????	
 2cc:	11 66 03 78 	addc	30723(r6),r1	;0x7803(r6)
 2d0:	66 68       	addc.b	@r8,	r6	
 2d2:	51 02       	.word	0x0251;	????	
 2d4:	12 00       	.word	0x0012;	????	
 2d6:	01 01       	.word	0x0101;	????	
 2d8:	38 01       	.word	0x0138;	????	
 2da:	00 00       	.word	0x0000;	????	
 2dc:	02 00       	.word	0x0002;	????	
 2de:	7d 00       	.word	0x007d;	????	
 2e0:	00 00       	.word	0x0000;	????	
 2e2:	01 01       	.word	0x0101;	????	
 2e4:	fb 0e       	.word	0x0efb;	????	
 2e6:	0d 00       	.word	0x000d;	????	
 2e8:	01 01       	.word	0x0101;	????	
 2ea:	01 01       	.word	0x0101;	????	
 2ec:	00 00       	.word	0x0000;	????	
 2ee:	00 01       	.word	0x0100;	????	
 2f0:	00 00       	.word	0x0000;	????	
 2f2:	01 2f       	jc	$-508    	;abs 0xf6
 2f4:	68 6f       	addc.b	@r15,	r8	
 2f6:	6d 65       	addc.b	@r5,	r13	
 2f8:	2f 6d       	addc	@r13,	r15	
 2fa:	61 63       	addc.b	#2,	r1	;r3 As==10
 2fc:	2f 2e       	jc	$-928    	;abs 0xff5c
 2fe:	6c 6f       	addc.b	@r15,	r12	
 300:	63 61       	.word	0x6163;	????	Illegal as 2-op instr
 302:	6c 2f       	jc	$-294    	;abs 0x1dc
 304:	65 6e       	addc.b	@r14,	r5	
 306:	65 72       	subc.b	#4,	r5	;r2 As==10
 308:	67 69       	addc.b	@r9,	r7	
 30a:	61 2f       	jc	$-316    	;abs 0x1ce
 30c:	68 61       	addc.b	@r1,	r8	
 30e:	72 64       	addc.b	@r4+,	r2	
 310:	77 61       	addc.b	@r1+,	r7	
 312:	72 65       	addc.b	@r5+,	r2	
 314:	2f 74       	subc	@r4,	r15	
 316:	6f 6f       	addc.b	@r15,	r15	
 318:	6c 73       	subc.b	#2,	r12	;r3 As==10
 31a:	2f 6d       	addc	@r13,	r15	
 31c:	73 70       	.word	0x7073;	????	Illegal as 2-op instr
 31e:	34 33       	jn	$-406    	;abs 0x188
 320:	30 2f       	jc	$-414    	;abs 0x182
 322:	62 69       	addc.b	@r9,	r2	
 324:	6e 2f       	jc	$-290    	;abs 0x202
 326:	2e 2e       	jc	$-930    	;abs 0xff84
 328:	2f 6c       	addc	@r12,	r15	
 32a:	69 62       	addc.b	#4,	r9	;r2 As==10
 32c:	2f 67       	addc	@r7,	r15	
 32e:	63 63       	.word	0x6363;	????	Illegal as 2-op instr
 330:	2f 6d       	addc	@r13,	r15	
 332:	73 70       	.word	0x7073;	????	Illegal as 2-op instr
 334:	34 33       	jn	$-406    	;abs 0x19e
 336:	30 2f       	jc	$-414    	;abs 0x198
 338:	34 2e       	jc	$-918    	;abs 0xffa2
 33a:	36 2e       	jc	$-914    	;abs 0xffa8
 33c:	33 2f       	jc	$-408    	;abs 0x1a4
 33e:	69 6e       	addc.b	@r14,	r9	
 340:	63 6c       	.word	0x6c63;	????	Illegal as 2-op instr
 342:	75 64       	addc.b	@r4+,	r5	
 344:	65 00       	.word	0x0065;	????	
 346:	00 63       	adc	r0		
 348:	6f 6e       	addc.b	@r14,	r15	
 34a:	69 6f       	addc.b	@r15,	r9	
 34c:	2e 63       	addc	#2,	r14	;r3 As==10
 34e:	00 00       	.word	0x0000;	????	
 350:	00 00       	.word	0x0000;	????	
 352:	73 74       	.word	0x7473;	????	Illegal as 2-op instr
 354:	64 61       	addc.b	@r1,	r4	
 356:	72 67       	addc.b	@r7+,	r2	
 358:	2e 68       	addc	@r8,	r14	
 35a:	00 01       	.word	0x0100;	????	
 35c:	00 00       	.word	0x0000;	????	
 35e:	00 00       	.word	0x0000;	????	
 360:	03 02       	.word	0x0203;	????	
 362:	94 c5 03 d9 	bic	-9981(r5),256(r4)	;0xd903(r5), 0x0100(r4)
 366:	00 01 
 368:	f6 00       	.word	0x00f6;	????	
 36a:	02 04       	.word	0x0402;	????	
 36c:	02 9f       	cmp	r15,	r2	
 36e:	00 02       	.word	0x0200;	????	
 370:	04 01       	.word	0x0104;	????	
 372:	06 2e       	jc	$-1010   	;abs 0xff80
 374:	06 bc       	bit	r12,	r6	
 376:	4b 4b       	mov.b	r11,	r11	
 378:	00 02       	.word	0x0200;	????	
 37a:	04 02       	.word	0x0204;	????	
 37c:	06 2e       	jc	$-1010   	;abs 0xff8a
 37e:	00 02       	.word	0x0200;	????	
 380:	04 01       	.word	0x0104;	????	
 382:	66 06       	.word	0x0666;	????	
 384:	bb 4b d8 83 	mov	@r11+,	-31784(r11);0x83d8(r11)
 388:	03 6c       	.word	0x6c03;	????	Illegal as 2-op instr
 38a:	ba 14       	.word	0x14ba;	????	
 38c:	bb 03       	.word	0x03bb;	????	
 38e:	42 2e       	jc	$-890    	;abs 0x14
 390:	4d 2f       	jc	$-356    	;abs 0x22c
 392:	00 02       	.word	0x0200;	????	
 394:	04 01       	.word	0x0104;	????	
 396:	49 69       	rlc.b	r9		
 398:	4d bf       	bit.b	r15,	r13	
 39a:	f3 83       	sub.b	#-1,	#1	;r3 As==11, r3 As==01
 39c:	00 02       	.word	0x0200;	????	
 39e:	04 01       	.word	0x0104;	????	
 3a0:	32 00       	.word	0x0032;	????	
 3a2:	02 04       	.word	0x0402;	????	
 3a4:	01 08       	.word	0x0801;	????	
 3a6:	21 00       	.word	0x0021;	????	
 3a8:	02 04       	.word	0x0402;	????	
 3aa:	01 b8       	bit	r8,	r1	
 3ac:	00 02       	.word	0x0200;	????	
 3ae:	04 02       	.word	0x0204;	????	
 3b0:	06 82       	sub	r2,	r6	
 3b2:	06 4f       	mov	r15,	r6	
 3b4:	00 02       	.word	0x0200;	????	
 3b6:	04 02       	.word	0x0204;	????	
 3b8:	03 70       	.word	0x7003;	????	Illegal as 2-op instr
 3ba:	66 00       	.word	0x0066;	????	
 3bc:	02 04       	.word	0x0402;	????	
 3be:	02 03       	.word	0x0302;	????	
 3c0:	11 82 00 02 	sub	&0x0200,r1	
 3c4:	04 01       	.word	0x0104;	????	
 3c6:	06 66       	rlc	r6		
 3c8:	00 02       	.word	0x0200;	????	
 3ca:	04 01       	.word	0x0104;	????	
 3cc:	06 49       	mov	r9,	r6	
 3ce:	69 bd       	bit.b	@r13,	r9	
 3d0:	69 4b       	mov.b	@r11,	r9	
 3d2:	08 59       	add	r9,	r8	
 3d4:	68 7e       	subc.b	@r14,	r8	
 3d6:	6e 03       	.word	0x036e;	????	
 3d8:	29 66       	addc	@r6,	r9	
 3da:	fa 2f       	jc	$-10     	;abs 0x3d0
 3dc:	67 02       	.word	0x0267;	????	
 3de:	44 14       	.word	0x1444;	????	
 3e0:	bd bb 31 67 	bit	@r11+,	26417(r13);0x6731(r13)
 3e4:	00 02       	.word	0x0200;	????	
 3e6:	04 01       	.word	0x0104;	????	
 3e8:	06 66       	rlc	r6		
 3ea:	06 f3       	and	#0,	r6	;r3 As==00
 3ec:	da 9f 00 02 	cmp.b	512(r15),260(r10);0x0200(r15), 0x0104(r10)
 3f0:	04 01 
 3f2:	06 66       	rlc	r6		
 3f4:	06 08       	.word	0x0806;	????	
 3f6:	ad b8 31 30 	bit	@r8,	12337(r13);0x3031(r13)
 3fa:	67 08       	.word	0x0867;	????	
 3fc:	21 9f       	cmp	@r15,	r1	
 3fe:	d7 03       	.word	0x03d7;	????	
 400:	66 82       	sub.b	#4,	r6	;r2 As==10
 402:	03 23       	jnz	$-504    	;abs 0x20a
 404:	2e 00       	.word	0x002e;	????	
 406:	02 04       	.word	0x0402;	????	
 408:	01 03       	.word	0x0301;	????	
 40a:	5d 4a 03 26 	mov.b	9731(r10),r13	;0x2603(r10)
 40e:	66 02       	.word	0x0266;	????	
 410:	0a 00       	.word	0x000a;	????	
 412:	01 01       	.word	0x0101;	????	
 414:	3d 00       	.word	0x003d;	????	
 416:	00 00       	.word	0x0000;	????	
 418:	02 00       	.word	0x0002;	????	
 41a:	25 00       	.word	0x0025;	????	
 41c:	00 00       	.word	0x0000;	????	
 41e:	01 01       	.word	0x0101;	????	
 420:	fb 0e       	.word	0x0efb;	????	
 422:	0d 00       	.word	0x000d;	????	
 424:	01 01       	.word	0x0101;	????	
 426:	01 01       	.word	0x0101;	????	
 428:	00 00       	.word	0x0000;	????	
 42a:	00 01       	.word	0x0100;	????	
 42c:	00 00       	.word	0x0000;	????	
 42e:	01 00       	.word	0x0001;	????	
 430:	63 6f       	.word	0x6f63;	????	Illegal as 2-op instr
 432:	6e 69       	addc.b	@r9,	r14	
 434:	6f 5f       	add.b	@r15,	r15	
 436:	73 65       	.word	0x6573;	????	Illegal as 2-op instr
 438:	72 69       	addc.b	@r9+,	r2	
 43a:	61 6c       	addc.b	@r12,	r1	
 43c:	2e 63       	addc	#2,	r14	;r3 As==10
 43e:	00 00       	.word	0x0000;	????	
 440:	00 00       	.word	0x0000;	????	
 442:	00 00       	.word	0x0000;	????	
 444:	03 02       	.word	0x0203;	????	
 446:	fe c7 03 17 	bic.b	@r7+,	5891(r14);0x1703(r14)
 44a:	01 13       	reti			;return from interupt
 44c:	4b 31       	jn	$+664    	;abs 0x6e4
 44e:	13 4b       	.word	0x4b13;	????	Illegal as 2-op instr
 450:	02 02       	.word	0x0202;	????	
 452:	00 01       	.word	0x0100;	????	
 454:	01 ee       	xor	r14,	r1	
 456:	00 00       	.word	0x0000;	????	
 458:	00 02       	.word	0x0200;	????	
 45a:	00 a2       	dadd	r2,	r0	
 45c:	00 00       	.word	0x0000;	????	
 45e:	00 01       	.word	0x0100;	????	
 460:	01 fb       	and	r11,	r1	
 462:	0e 0d       	.word	0x0d0e;	????	
 464:	00 01       	.word	0x0100;	????	
 466:	01 01       	.word	0x0101;	????	
 468:	01 00       	.word	0x0001;	????	
 46a:	00 00       	.word	0x0000;	????	
 46c:	01 00       	.word	0x0001;	????	
 46e:	00 01       	.word	0x0100;	????	
 470:	2f 68       	addc	@r8,	r15	
 472:	6f 6d       	addc.b	@r13,	r15	
 474:	65 2f       	jc	$-308    	;abs 0x340
 476:	6d 61       	addc.b	@r1,	r13	
 478:	63 2f       	jc	$-312    	;abs 0x340
 47a:	2e 6c       	addc	@r12,	r14	
 47c:	6f 63       	addc.b	#2,	r15	;r3 As==10
 47e:	61 6c       	addc.b	@r12,	r1	
 480:	2f 65       	addc	@r5,	r15	
 482:	6e 65       	addc.b	@r5,	r14	
 484:	72 67       	addc.b	@r7+,	r2	
 486:	69 61       	addc.b	@r1,	r9	
 488:	2f 68       	addc	@r8,	r15	
 48a:	61 72       	subc.b	#4,	r1	;r2 As==10
 48c:	64 77       	subc.b	@r7,	r4	
 48e:	61 72       	subc.b	#4,	r1	;r2 As==10
 490:	65 2f       	jc	$-308    	;abs 0x35c
 492:	74 6f       	addc.b	@r15+,	r4	
 494:	6f 6c       	addc.b	@r12,	r15	
 496:	73 2f       	jc	$-280    	;abs 0x37e
 498:	6d 73       	subc.b	#2,	r13	;r3 As==10
 49a:	70 34       	jge	$+226    	;abs 0x57c
 49c:	33 30       	jn	$+104    	;abs 0x504
 49e:	2f 62       	addc	#4,	r15	;r2 As==10
 4a0:	69 6e       	addc.b	@r14,	r9	
 4a2:	2f 2e       	jc	$-928    	;abs 0x102
 4a4:	2e 2f       	jc	$-418    	;abs 0x302
 4a6:	6c 69       	addc.b	@r9,	r12	
 4a8:	62 2f       	jc	$-314    	;abs 0x36e
 4aa:	67 63       	addc.b	#2,	r7	;r3 As==10
 4ac:	63 2f       	jc	$-312    	;abs 0x374
 4ae:	6d 73       	subc.b	#2,	r13	;r3 As==10
 4b0:	70 34       	jge	$+226    	;abs 0x592
 4b2:	33 30       	jn	$+104    	;abs 0x51a
 4b4:	2f 34       	jge	$+96     	;abs 0x514
 4b6:	2e 36       	jge	$-930    	;abs 0x114
 4b8:	2e 33       	jn	$-418    	;abs 0x316
 4ba:	2f 2e       	jc	$-928    	;abs 0x11a
 4bc:	2e 2f       	jc	$-418    	;abs 0x31a
 4be:	2e 2e       	jc	$-930    	;abs 0x11c
 4c0:	2f 2e       	jc	$-928    	;abs 0x120
 4c2:	2e 2f       	jc	$-418    	;abs 0x320
 4c4:	2e 2e       	jc	$-930    	;abs 0x122
 4c6:	2f 6d       	addc	@r13,	r15	
 4c8:	73 70       	.word	0x7073;	????	Illegal as 2-op instr
 4ca:	34 33       	jn	$-406    	;abs 0x334
 4cc:	30 2f       	jc	$-414    	;abs 0x32e
 4ce:	69 6e       	addc.b	@r14,	r9	
 4d0:	63 6c       	.word	0x6c63;	????	Illegal as 2-op instr
 4d2:	75 64       	addc.b	@r4+,	r5	
 4d4:	65 00       	.word	0x0065;	????	
 4d6:	00 73       	sbc	r0		
 4d8:	65 72       	subc.b	#4,	r5	;r2 As==10
 4da:	69 61       	addc.b	@r1,	r9	
 4dc:	6c 5f       	add.b	@r15,	r12	
 4de:	75 73       	subc.b	#-1,	r5	;r3 As==11
 4e0:	63 69       	.word	0x6963;	????	Illegal as 2-op instr
 4e2:	5f 6d 73 70 	addc.b	28787(r13),r15	;0x7073(r13)
 4e6:	34 33       	jn	$-406    	;abs 0x350
 4e8:	30 2e       	jc	$-926    	;abs 0x14a
 4ea:	63 00       	.word	0x0063;	????	
 4ec:	00 00       	.word	0x0000;	????	
 4ee:	00 6d       	addc	r13,	r0	
 4f0:	73 70       	.word	0x7073;	????	Illegal as 2-op instr
 4f2:	34 33       	jn	$-406    	;abs 0x35c
 4f4:	30 67       	addc	@r7+,	r0	
 4f6:	32 35       	jge	$+614    	;abs 0x75c
 4f8:	35 33       	jn	$-404    	;abs 0x364
 4fa:	2e 68       	addc	@r8,	r14	
 4fc:	00 01       	.word	0x0100;	????	
 4fe:	00 00       	.word	0x0000;	????	
 500:	00 00       	.word	0x0000;	????	
 502:	03 02       	.word	0x0203;	????	
 504:	0a c8       	bic	r8,	r10	
 506:	03 2a       	jnc	$-1016   	;abs 0x10e
 508:	01 13       	reti			;return from interupt
 50a:	67 67       	addc.b	@r7,	r7	
 50c:	68 03       	.word	0x0368;	????	
 50e:	0a 08       	.word	0x080a;	????	
 510:	ac 02       	.word	0x02ac;	????	
 512:	2e 14       	.word	0x142e;	????	
 514:	d7 bd bf 02 	bit.b	703(r13),5166(r7);0x02bf(r13), 0x142e(r7)
 518:	2e 14 
 51a:	84 d7 bb bb 	bis	r7,	-17477(r4);0xbbbb(r4)
 51e:	da bb d7 d7 	bit.b	-10281(r11),19364(r10);0xd7d7(r11), 0x4ba4(r10)
 522:	a4 4b 
 524:	67 03       	.word	0x0367;	????	
 526:	4b 2e       	jc	$-872    	;abs 0x1be
 528:	13 d7       	.word	0xd713;	????	Illegal as 2-op instr
 52a:	03 36       	jge	$-1016   	;abs 0x132
 52c:	2e 13       	reti			;return from interupt
 52e:	4b 31       	jn	$+664    	;abs 0x7c6
 530:	00 02       	.word	0x0200;	????	
 532:	04 01       	.word	0x0104;	????	
 534:	13 83       	dec	#0		;r3 As==00
 536:	4b 31       	jn	$+664    	;abs 0x7ce
 538:	13 4b       	.word	0x4b13;	????	Illegal as 2-op instr
 53a:	31 00       	.word	0x0031;	????	
 53c:	02 04       	.word	0x0402;	????	
 53e:	01 13       	reti			;return from interupt
 540:	83 4b       	mov	r11,	#1	;r3 As==01
 542:	02 02       	.word	0x0202;	????	
 544:	00 01       	.word	0x0100;	????	
 546:	01 78       	subc	r8,	r1	
 548:	00 00       	.word	0x0000;	????	
 54a:	00 02       	.word	0x0200;	????	
 54c:	00 4b       	br	r11		
 54e:	00 00       	.word	0x0000;	????	
 550:	00 01       	.word	0x0100;	????	
 552:	01 fb       	and	r11,	r1	
 554:	0e 0d       	.word	0x0d0e;	????	
 556:	00 01       	.word	0x0100;	????	
 558:	01 01       	.word	0x0101;	????	
 55a:	01 00       	.word	0x0001;	????	
 55c:	00 00       	.word	0x0000;	????	
 55e:	01 00       	.word	0x0001;	????	
 560:	00 01       	.word	0x0100;	????	
 562:	2e 2e       	jc	$-930    	;abs 0x1c0
 564:	2f 2e       	jc	$-928    	;abs 0x1c4
 566:	2e 2f       	jc	$-418    	;abs 0x3c4
 568:	2e 2e       	jc	$-930    	;abs 0x1c6
 56a:	2f 2e       	jc	$-928    	;abs 0x1ca
 56c:	2e 2f       	jc	$-418    	;abs 0x3ca
 56e:	67 63       	addc.b	#2,	r7	;r3 As==10
 570:	63 2f       	jc	$-312    	;abs 0x438
 572:	6c 69       	addc.b	@r9,	r12	
 574:	62 67       	addc.b	@r7,	r2	
 576:	63 63       	.word	0x6363;	????	Illegal as 2-op instr
 578:	2f 2e       	jc	$-928    	;abs 0x1d8
 57a:	2e 2f       	jc	$-418    	;abs 0x3d8
 57c:	67 63       	addc.b	#2,	r7	;r3 As==10
 57e:	63 2f       	jc	$-312    	;abs 0x446
 580:	63 6f       	.word	0x6f63;	????	Illegal as 2-op instr
 582:	6e 66       	addc.b	@r6,	r14	
 584:	69 67       	addc.b	@r7,	r9	
 586:	2f 6d       	addc	@r13,	r15	
 588:	73 70       	.word	0x7073;	????	Illegal as 2-op instr
 58a:	34 33       	jn	$-406    	;abs 0x3f4
 58c:	30 00       	.word	0x0030;	????	
 58e:	00 6c       	addc	r12,	r0	
 590:	69 62       	addc.b	#4,	r9	;r2 As==10
 592:	67 63       	addc.b	#2,	r7	;r3 As==10
 594:	63 2e       	jc	$-824    	;abs 0x25c
 596:	53 00       	.word	0x0053;	????	
 598:	01 00       	.word	0x0001;	????	
 59a:	00 00       	.word	0x0000;	????	
 59c:	00 03       	.word	0x0300;	????	
 59e:	02 6c       	addc	r12,	r2	
 5a0:	c9 03       	.word	0x03c9;	????	
 5a2:	c6 04       	.word	0x04c6;	????	
 5a4:	01 2f       	jc	$-508    	;abs 0x3a8
 5a6:	2f 2f       	jc	$-416    	;abs 0x406
 5a8:	4b 2f       	jc	$-360    	;abs 0x440
 5aa:	2f 2f       	jc	$-416    	;abs 0x40a
 5ac:	2f 2f       	jc	$-416    	;abs 0x40c
 5ae:	2f 2f       	jc	$-416    	;abs 0x40e
 5b0:	2f 4b       	mov	@r11,	r15	
 5b2:	2f 2f       	jc	$-416    	;abs 0x412
 5b4:	2f 2f       	jc	$-416    	;abs 0x414
 5b6:	2f 2f       	jc	$-416    	;abs 0x416
 5b8:	2f 2f       	jc	$-416    	;abs 0x418
 5ba:	2f 34       	jge	$+96     	;abs 0x61a
 5bc:	4b 2f       	jc	$-360    	;abs 0x454
 5be:	02 02       	.word	0x0202;	????	
 5c0:	00 01       	.word	0x0100;	????	
 5c2:	01 6d       	addc	r13,	r1	
 5c4:	00 00       	.word	0x0000;	????	
 5c6:	00 02       	.word	0x0200;	????	
 5c8:	00 4b       	br	r11		
 5ca:	00 00       	.word	0x0000;	????	
 5cc:	00 01       	.word	0x0100;	????	
 5ce:	01 fb       	and	r11,	r1	
 5d0:	0e 0d       	.word	0x0d0e;	????	
 5d2:	00 01       	.word	0x0100;	????	
 5d4:	01 01       	.word	0x0101;	????	
 5d6:	01 00       	.word	0x0001;	????	
 5d8:	00 00       	.word	0x0000;	????	
 5da:	01 00       	.word	0x0001;	????	
 5dc:	00 01       	.word	0x0100;	????	
 5de:	2e 2e       	jc	$-930    	;abs 0x23c
 5e0:	2f 2e       	jc	$-928    	;abs 0x240
 5e2:	2e 2f       	jc	$-418    	;abs 0x440
 5e4:	2e 2e       	jc	$-930    	;abs 0x242
 5e6:	2f 2e       	jc	$-928    	;abs 0x246
 5e8:	2e 2f       	jc	$-418    	;abs 0x446
 5ea:	67 63       	addc.b	#2,	r7	;r3 As==10
 5ec:	63 2f       	jc	$-312    	;abs 0x4b4
 5ee:	6c 69       	addc.b	@r9,	r12	
 5f0:	62 67       	addc.b	@r7,	r2	
 5f2:	63 63       	.word	0x6363;	????	Illegal as 2-op instr
 5f4:	2f 2e       	jc	$-928    	;abs 0x254
 5f6:	2e 2f       	jc	$-418    	;abs 0x454
 5f8:	67 63       	addc.b	#2,	r7	;r3 As==10
 5fa:	63 2f       	jc	$-312    	;abs 0x4c2
 5fc:	63 6f       	.word	0x6f63;	????	Illegal as 2-op instr
 5fe:	6e 66       	addc.b	@r6,	r14	
 600:	69 67       	addc.b	@r7,	r9	
 602:	2f 6d       	addc	@r13,	r15	
 604:	73 70       	.word	0x7073;	????	Illegal as 2-op instr
 606:	34 33       	jn	$-406    	;abs 0x470
 608:	30 00       	.word	0x0030;	????	
 60a:	00 6c       	addc	r12,	r0	
 60c:	69 62       	addc.b	#4,	r9	;r2 As==10
 60e:	67 63       	addc.b	#2,	r7	;r3 As==10
 610:	63 2e       	jc	$-824    	;abs 0x2d8
 612:	53 00       	.word	0x0053;	????	
 614:	01 00       	.word	0x0001;	????	
 616:	00 00       	.word	0x0000;	????	
 618:	00 03       	.word	0x0300;	????	
 61a:	02 a6       	dadd	r6,	r2	
 61c:	c9 03       	.word	0x03c9;	????	
 61e:	a4 04       	.word	0x04a4;	????	
 620:	01 4b       	mov	r11,	r1	
 622:	2f 2f       	jc	$-416    	;abs 0x482
 624:	2f 2f       	jc	$-416    	;abs 0x484
 626:	2f 2f       	jc	$-416    	;abs 0x486
 628:	2f 2f       	jc	$-416    	;abs 0x488
 62a:	2f 2f       	jc	$-416    	;abs 0x48a
 62c:	34 4b       	mov	@r11+,	r4	
 62e:	2f 02       	.word	0x022f;	????	
 630:	02 00       	.word	0x0002;	????	
 632:	01 01       	.word	0x0101;	????	
 634:	e4 00       	.word	0x00e4;	????	
 636:	00 00       	.word	0x0000;	????	
 638:	02 00       	.word	0x0002;	????	
 63a:	92 00       	.word	0x0092;	????	
 63c:	00 00       	.word	0x0000;	????	
 63e:	01 01       	.word	0x0101;	????	
 640:	fb 0e       	.word	0x0efb;	????	
 642:	0d 00       	.word	0x000d;	????	
 644:	01 01       	.word	0x0101;	????	
 646:	01 01       	.word	0x0101;	????	
 648:	00 00       	.word	0x0000;	????	
 64a:	00 01       	.word	0x0100;	????	
 64c:	00 00       	.word	0x0000;	????	
 64e:	01 2e       	jc	$-1020   	;abs 0x252
 650:	2f 73       	subc	#2,	r15	;r3 As==10
 652:	74 72       	subc.b	#8,	r4	;r2 As==11
 654:	69 6e       	addc.b	@r14,	r9	
 656:	67 00       	.word	0x0067;	????	
 658:	2e 2f       	jc	$-418    	;abs 0x4b6
 65a:	2e 2e       	jc	$-930    	;abs 0x2b8
 65c:	2f 69       	addc	@r9,	r15	
 65e:	6e 63       	addc.b	#2,	r14	;r3 As==10
 660:	6c 75       	subc.b	@r5,	r12	
 662:	64 65       	addc.b	@r5,	r4	
 664:	2f 73       	subc	#2,	r15	;r3 As==10
 666:	79 73       	subc.b	#-1,	r9	;r3 As==11
 668:	00 2f       	jc	$-510    	;abs 0x46a
 66a:	68 6f       	addc.b	@r15,	r8	
 66c:	6d 65       	addc.b	@r5,	r13	
 66e:	2f 72       	subc	#4,	r15	;r2 As==10
 670:	6f 62       	addc.b	#4,	r15	;r2 As==10
 672:	65 72       	subc.b	#4,	r5	;r2 As==10
 674:	74 69       	addc.b	@r9+,	r4	
 676:	6e 61       	addc.b	@r1,	r14	
 678:	6e 74       	subc.b	@r4,	r14	
 67a:	2f 6f       	addc	@r15,	r15	
 67c:	70 74       	subc.b	@r4+,	r0	
 67e:	2f 6d       	addc	@r13,	r15	
 680:	73 70       	.word	0x7073;	????	Illegal as 2-op instr
 682:	67 63       	addc.b	#2,	r7	;r3 As==10
 684:	63 5f       	.word	0x5f63;	????	Illegal as 2-op instr
 686:	65 6e       	addc.b	@r14,	r5	
 688:	65 72       	subc.b	#4,	r5	;r2 As==10
 68a:	67 69       	addc.b	@r9,	r7	
 68c:	61 2f       	jc	$-316    	;abs 0x550
 68e:	6c 69       	addc.b	@r9,	r12	
 690:	62 2f       	jc	$-314    	;abs 0x556
 692:	67 63       	addc.b	#2,	r7	;r3 As==10
 694:	63 2f       	jc	$-312    	;abs 0x55c
 696:	6d 73       	subc.b	#2,	r13	;r3 As==10
 698:	70 34       	jge	$+226    	;abs 0x77a
 69a:	33 30       	jn	$+104    	;abs 0x702
 69c:	2f 34       	jge	$+96     	;abs 0x6fc
 69e:	2e 36       	jge	$-930    	;abs 0x2fc
 6a0:	2e 33       	jn	$-418    	;abs 0x4fe
 6a2:	2f 69       	addc	@r9,	r15	
 6a4:	6e 63       	addc.b	#2,	r14	;r3 As==10
 6a6:	6c 75       	subc.b	@r5,	r12	
 6a8:	64 65       	addc.b	@r5,	r4	
 6aa:	00 00       	.word	0x0000;	????	
 6ac:	6d 65       	addc.b	@r5,	r13	
 6ae:	6d 73       	subc.b	#2,	r13	;r3 As==10
 6b0:	65 74       	subc.b	@r4,	r5	
 6b2:	2e 63       	addc	#2,	r14	;r3 As==10
 6b4:	00 01       	.word	0x0100;	????	
 6b6:	00 00       	.word	0x0000;	????	
 6b8:	74 79       	subc.b	@r9+,	r4	
 6ba:	70 65       	addc.b	@r5+,	r0	
 6bc:	73 2e       	jc	$-792    	;abs 0x3a4
 6be:	68 00       	.word	0x0068;	????	
 6c0:	02 00       	.word	0x0002;	????	
 6c2:	00 73       	sbc	r0		
 6c4:	74 64       	addc.b	@r4+,	r4	
 6c6:	64 65       	addc.b	@r5,	r4	
 6c8:	66 2e       	jc	$-818    	;abs 0x396
 6ca:	68 00       	.word	0x0068;	????	
 6cc:	03 00       	.word	0x0003;	????	
 6ce:	00 00       	.word	0x0000;	????	
 6d0:	00 03       	.word	0x0300;	????	
 6d2:	02 c8       	bic	r8,	r2	
 6d4:	c9 03       	.word	0x03c9;	????	
 6d6:	3d 01       	.word	0x013d;	????	
 6d8:	03 15       	.word	0x1503;	????	
 6da:	82 00       	.word	0x0082;	????	
 6dc:	02 04       	.word	0x0402;	????	
 6de:	01 06       	.word	0x0601;	????	
 6e0:	66 06       	.word	0x0666;	????	
 6e2:	4e 67       	addc.b	r7,	r14	
 6e4:	00 02       	.word	0x0200;	????	
 6e6:	04 01       	.word	0x0104;	????	
 6e8:	2b 03       	.word	0x032b;	????	
 6ea:	09 66       	addc	r6,	r9	
 6ec:	84 03       	.word	0x0384;	????	
 6ee:	0a 66       	addc	r6,	r10	
 6f0:	4d 31       	jn	$+668    	;abs 0x98c
 6f2:	03 7a       	.word	0x7a03;	????	Illegal as 2-op instr
 6f4:	9e 03       	.word	0x039e;	????	
 6f6:	0c 2e       	jc	$-998    	;abs 0x310
 6f8:	00 02       	.word	0x0200;	????	
 6fa:	04 01       	.word	0x0104;	????	
 6fc:	a1 00       	.word	0x00a1;	????	
 6fe:	02 04       	.word	0x0402;	????	
 700:	01 4b       	mov	r11,	r1	
 702:	00 02       	.word	0x0200;	????	
 704:	04 01       	.word	0x0104;	????	
 706:	30 03       	.word	0x0330;	????	
 708:	bd 7f 4a 03 	subc	@r15+,	842(r13);0x034a(r13)
 70c:	c3 00       	.word	0x00c3;	????	
 70e:	2e 31       	jn	$+606    	;abs 0x96c
 710:	2f 00       	.word	0x002f;	????	
 712:	02 04       	.word	0x0402;	????	
 714:	01 31       	jn	$+516    	;abs 0x918
 716:	4e 02       	.word	0x024e;	????	
 718:	0a 00       	.word	0x000a;	????	
 71a:	01 01       	.word	0x0101;	????	
 71c:	52 00       	.word	0x0052;	????	
 71e:	00 00       	.word	0x0000;	????	
 720:	02 00       	.word	0x0002;	????	
 722:	3c 00       	.word	0x003c;	????	
 724:	00 00       	.word	0x0000;	????	
 726:	01 01       	.word	0x0101;	????	
 728:	fb 0e       	.word	0x0efb;	????	
 72a:	0d 00       	.word	0x000d;	????	
 72c:	01 01       	.word	0x0101;	????	
 72e:	01 01       	.word	0x0101;	????	
 730:	00 00       	.word	0x0000;	????	
 732:	00 01       	.word	0x0100;	????	
 734:	00 00       	.word	0x0000;	????	
 736:	01 2e       	jc	$-1020   	;abs 0x33a
 738:	2e 2f       	jc	$-418    	;abs 0x596
 73a:	2e 2e       	jc	$-930    	;abs 0x398
 73c:	2f 2e       	jc	$-928    	;abs 0x39c
 73e:	2e 2f       	jc	$-418    	;abs 0x59c
 740:	67 63       	addc.b	#2,	r7	;r3 As==10
 742:	63 2f       	jc	$-312    	;abs 0x60a
 744:	67 63       	addc.b	#2,	r7	;r3 As==10
 746:	63 2f       	jc	$-312    	;abs 0x60e
 748:	63 6f       	.word	0x6f63;	????	Illegal as 2-op instr
 74a:	6e 66       	addc.b	@r6,	r14	
 74c:	69 67       	addc.b	@r7,	r9	
 74e:	2f 6d       	addc	@r13,	r15	
 750:	73 70       	.word	0x7073;	????	Illegal as 2-op instr
 752:	34 33       	jn	$-406    	;abs 0x5bc
 754:	30 00       	.word	0x0030;	????	
 756:	00 63       	adc	r0		
 758:	72 74       	subc.b	@r4+,	r2	
 75a:	30 2e       	jc	$-926    	;abs 0x3bc
 75c:	53 00       	.word	0x0053;	????	
 75e:	01 00       	.word	0x0001;	????	
 760:	00 00       	.word	0x0000;	????	
 762:	00 03       	.word	0x0300;	????	
 764:	02 00       	.word	0x0002;	????	
 766:	c0 03       	.word	0x03c0;	????	
 768:	e8 00       	.word	0x00e8;	????	
 76a:	01 4b       	mov	r11,	r1	
 76c:	4b 02       	.word	0x024b;	????	
 76e:	04 00       	.word	0x0004;	????	
 770:	01 01       	.word	0x0101;	????	
 772:	50 00       	.word	0x0050;	????	
 774:	00 00       	.word	0x0000;	????	
 776:	02 00       	.word	0x0002;	????	
 778:	3c 00       	.word	0x003c;	????	
 77a:	00 00       	.word	0x0000;	????	
 77c:	01 01       	.word	0x0101;	????	
 77e:	fb 0e       	.word	0x0efb;	????	
 780:	0d 00       	.word	0x000d;	????	
 782:	01 01       	.word	0x0101;	????	
 784:	01 01       	.word	0x0101;	????	
 786:	00 00       	.word	0x0000;	????	
 788:	00 01       	.word	0x0100;	????	
 78a:	00 00       	.word	0x0000;	????	
 78c:	01 2e       	jc	$-1020   	;abs 0x390
 78e:	2e 2f       	jc	$-418    	;abs 0x5ec
 790:	2e 2e       	jc	$-930    	;abs 0x3ee
 792:	2f 2e       	jc	$-928    	;abs 0x3f2
 794:	2e 2f       	jc	$-418    	;abs 0x5f2
 796:	67 63       	addc.b	#2,	r7	;r3 As==10
 798:	63 2f       	jc	$-312    	;abs 0x660
 79a:	67 63       	addc.b	#2,	r7	;r3 As==10
 79c:	63 2f       	jc	$-312    	;abs 0x664
 79e:	63 6f       	.word	0x6f63;	????	Illegal as 2-op instr
 7a0:	6e 66       	addc.b	@r6,	r14	
 7a2:	69 67       	addc.b	@r7,	r9	
 7a4:	2f 6d       	addc	@r13,	r15	
 7a6:	73 70       	.word	0x7073;	????	Illegal as 2-op instr
 7a8:	34 33       	jn	$-406    	;abs 0x612
 7aa:	30 00       	.word	0x0030;	????	
 7ac:	00 63       	adc	r0		
 7ae:	72 74       	subc.b	@r4+,	r2	
 7b0:	30 2e       	jc	$-926    	;abs 0x412
 7b2:	53 00       	.word	0x0053;	????	
 7b4:	01 00       	.word	0x0001;	????	
 7b6:	00 00       	.word	0x0000;	????	
 7b8:	00 03       	.word	0x0300;	????	
 7ba:	02 0c       	.word	0x0c02;	????	
 7bc:	c0 03       	.word	0x03c0;	????	
 7be:	99 01       	.word	0x0199;	????	
 7c0:	01 02       	.word	0x0201;	????	
 7c2:	04 00       	.word	0x0004;	????	
 7c4:	01 01       	.word	0x0101;	????	
 7c6:	56 00       	.word	0x0056;	????	
 7c8:	00 00       	.word	0x0000;	????	
 7ca:	02 00       	.word	0x0002;	????	
 7cc:	3c 00       	.word	0x003c;	????	
 7ce:	00 00       	.word	0x0000;	????	
 7d0:	01 01       	.word	0x0101;	????	
 7d2:	fb 0e       	.word	0x0efb;	????	
 7d4:	0d 00       	.word	0x000d;	????	
 7d6:	01 01       	.word	0x0101;	????	
 7d8:	01 01       	.word	0x0101;	????	
 7da:	00 00       	.word	0x0000;	????	
 7dc:	00 01       	.word	0x0100;	????	
 7de:	00 00       	.word	0x0000;	????	
 7e0:	01 2e       	jc	$-1020   	;abs 0x3e4
 7e2:	2e 2f       	jc	$-418    	;abs 0x640
 7e4:	2e 2e       	jc	$-930    	;abs 0x442
 7e6:	2f 2e       	jc	$-928    	;abs 0x446
 7e8:	2e 2f       	jc	$-418    	;abs 0x646
 7ea:	67 63       	addc.b	#2,	r7	;r3 As==10
 7ec:	63 2f       	jc	$-312    	;abs 0x6b4
 7ee:	67 63       	addc.b	#2,	r7	;r3 As==10
 7f0:	63 2f       	jc	$-312    	;abs 0x6b8
 7f2:	63 6f       	.word	0x6f63;	????	Illegal as 2-op instr
 7f4:	6e 66       	addc.b	@r6,	r14	
 7f6:	69 67       	addc.b	@r7,	r9	
 7f8:	2f 6d       	addc	@r13,	r15	
 7fa:	73 70       	.word	0x7073;	????	Illegal as 2-op instr
 7fc:	34 33       	jn	$-406    	;abs 0x666
 7fe:	30 00       	.word	0x0030;	????	
 800:	00 63       	adc	r0		
 802:	72 74       	subc.b	@r4+,	r2	
 804:	30 2e       	jc	$-926    	;abs 0x466
 806:	53 00       	.word	0x0053;	????	
 808:	01 00       	.word	0x0001;	????	
 80a:	00 00       	.word	0x0000;	????	
 80c:	00 03       	.word	0x0300;	????	
 80e:	02 10       	rrc	r2		
 810:	c0 03       	.word	0x03c0;	????	
 812:	bc 01       	.word	0x01bc;	????	
 814:	01 4b       	mov	r11,	r1	
 816:	2f 30       	jn	$+96     	;abs 0x876
 818:	67 2f       	jc	$-304    	;abs 0x6e8
 81a:	67 02       	.word	0x0267;	????	
 81c:	02 00       	.word	0x0002;	????	
 81e:	01 01       	.word	0x0101;	????	
 820:	56 00       	.word	0x0056;	????	
 822:	00 00       	.word	0x0000;	????	
 824:	02 00       	.word	0x0002;	????	
 826:	3c 00       	.word	0x003c;	????	
 828:	00 00       	.word	0x0000;	????	
 82a:	01 01       	.word	0x0101;	????	
 82c:	fb 0e       	.word	0x0efb;	????	
 82e:	0d 00       	.word	0x000d;	????	
 830:	01 01       	.word	0x0101;	????	
 832:	01 01       	.word	0x0101;	????	
 834:	00 00       	.word	0x0000;	????	
 836:	00 01       	.word	0x0100;	????	
 838:	00 00       	.word	0x0000;	????	
 83a:	01 2e       	jc	$-1020   	;abs 0x43e
 83c:	2e 2f       	jc	$-418    	;abs 0x69a
 83e:	2e 2e       	jc	$-930    	;abs 0x49c
 840:	2f 2e       	jc	$-928    	;abs 0x4a0
 842:	2e 2f       	jc	$-418    	;abs 0x6a0
 844:	67 63       	addc.b	#2,	r7	;r3 As==10
 846:	63 2f       	jc	$-312    	;abs 0x70e
 848:	67 63       	addc.b	#2,	r7	;r3 As==10
 84a:	63 2f       	jc	$-312    	;abs 0x712
 84c:	63 6f       	.word	0x6f63;	????	Illegal as 2-op instr
 84e:	6e 66       	addc.b	@r6,	r14	
 850:	69 67       	addc.b	@r7,	r9	
 852:	2f 6d       	addc	@r13,	r15	
 854:	73 70       	.word	0x7073;	????	Illegal as 2-op instr
 856:	34 33       	jn	$-406    	;abs 0x6c0
 858:	30 00       	.word	0x0030;	????	
 85a:	00 63       	adc	r0		
 85c:	72 74       	subc.b	@r4+,	r2	
 85e:	30 2e       	jc	$-926    	;abs 0x4c0
 860:	53 00       	.word	0x0053;	????	
 862:	01 00       	.word	0x0001;	????	
 864:	00 00       	.word	0x0000;	????	
 866:	00 03       	.word	0x0300;	????	
 868:	02 28       	jnc	$+6      	;abs 0x86e
 86a:	c0 03       	.word	0x03c0;	????	
 86c:	d6 01       	.word	0x01d6;	????	
 86e:	01 4b       	mov	r11,	r1	
 870:	2f 30       	jn	$+96     	;abs 0x8d0
 872:	67 2f       	jc	$-304    	;abs 0x742
 874:	4b 02       	.word	0x024b;	????	
 876:	02 00       	.word	0x0002;	????	
 878:	01 01       	.word	0x0101;	????	
 87a:	51 00       	.word	0x0051;	????	
 87c:	00 00       	.word	0x0000;	????	
 87e:	02 00       	.word	0x0002;	????	
 880:	3c 00       	.word	0x003c;	????	
 882:	00 00       	.word	0x0000;	????	
 884:	01 01       	.word	0x0101;	????	
 886:	fb 0e       	.word	0x0efb;	????	
 888:	0d 00       	.word	0x000d;	????	
 88a:	01 01       	.word	0x0101;	????	
 88c:	01 01       	.word	0x0101;	????	
 88e:	00 00       	.word	0x0000;	????	
 890:	00 01       	.word	0x0100;	????	
 892:	00 00       	.word	0x0000;	????	
 894:	01 2e       	jc	$-1020   	;abs 0x498
 896:	2e 2f       	jc	$-418    	;abs 0x6f4
 898:	2e 2e       	jc	$-930    	;abs 0x4f6
 89a:	2f 2e       	jc	$-928    	;abs 0x4fa
 89c:	2e 2f       	jc	$-418    	;abs 0x6fa
 89e:	67 63       	addc.b	#2,	r7	;r3 As==10
 8a0:	63 2f       	jc	$-312    	;abs 0x768
 8a2:	67 63       	addc.b	#2,	r7	;r3 As==10
 8a4:	63 2f       	jc	$-312    	;abs 0x76c
 8a6:	63 6f       	.word	0x6f63;	????	Illegal as 2-op instr
 8a8:	6e 66       	addc.b	@r6,	r14	
 8aa:	69 67       	addc.b	@r7,	r9	
 8ac:	2f 6d       	addc	@r13,	r15	
 8ae:	73 70       	.word	0x7073;	????	Illegal as 2-op instr
 8b0:	34 33       	jn	$-406    	;abs 0x71a
 8b2:	30 00       	.word	0x0030;	????	
 8b4:	00 63       	adc	r0		
 8b6:	72 74       	subc.b	@r4+,	r2	
 8b8:	30 2e       	jc	$-926    	;abs 0x51a
 8ba:	53 00       	.word	0x0053;	????	
 8bc:	01 00       	.word	0x0001;	????	
 8be:	00 00       	.word	0x0000;	????	
 8c0:	00 03       	.word	0x0300;	????	
 8c2:	02 a2       	dadd	r2,	r2	
 8c4:	c1 03       	.word	0x03c1;	????	
 8c6:	fe 01       	.word	0x01fe;	????	
 8c8:	01 4b       	mov	r11,	r1	
 8ca:	02 02       	.word	0x0202;	????	
 8cc:	00 01       	.word	0x0100;	????	
 8ce:	01 50       	add	r0,	r1	
 8d0:	00 00       	.word	0x0000;	????	
 8d2:	00 02       	.word	0x0200;	????	
 8d4:	00 3c       	jmp	$+2      	;abs 0x8d6
 8d6:	00 00       	.word	0x0000;	????	
 8d8:	00 01       	.word	0x0100;	????	
 8da:	01 fb       	and	r11,	r1	
 8dc:	0e 0d       	.word	0x0d0e;	????	
 8de:	00 01       	.word	0x0100;	????	
 8e0:	01 01       	.word	0x0101;	????	
 8e2:	01 00       	.word	0x0001;	????	
 8e4:	00 00       	.word	0x0000;	????	
 8e6:	01 00       	.word	0x0001;	????	
 8e8:	00 01       	.word	0x0100;	????	
 8ea:	2e 2e       	jc	$-930    	;abs 0x548
 8ec:	2f 2e       	jc	$-928    	;abs 0x54c
 8ee:	2e 2f       	jc	$-418    	;abs 0x74c
 8f0:	2e 2e       	jc	$-930    	;abs 0x54e
 8f2:	2f 67       	addc	@r7,	r15	
 8f4:	63 63       	.word	0x6363;	????	Illegal as 2-op instr
 8f6:	2f 67       	addc	@r7,	r15	
 8f8:	63 63       	.word	0x6363;	????	Illegal as 2-op instr
 8fa:	2f 63       	addc	#2,	r15	;r3 As==10
 8fc:	6f 6e       	addc.b	@r14,	r15	
 8fe:	66 69       	addc.b	@r9,	r6	
 900:	67 2f       	jc	$-304    	;abs 0x7d0
 902:	6d 73       	subc.b	#2,	r13	;r3 As==10
 904:	70 34       	jge	$+226    	;abs 0x9e6
 906:	33 30       	jn	$+104    	;abs 0x96e
 908:	00 00       	.word	0x0000;	????	
 90a:	63 72       	.word	0x7263;	????	Illegal as 2-op instr
 90c:	74 30       	jn	$+234    	;abs 0x9f6
 90e:	2e 53       	incd	r14		
 910:	00 01       	.word	0x0100;	????	
 912:	00 00       	.word	0x0000;	????	
 914:	00 00       	.word	0x0000;	????	
 916:	03 02       	.word	0x0203;	????	
 918:	32 ca       	bic	@r10+,	r2	
 91a:	03 cd       	.word	0xcd03;	????	Illegal as 2-op instr
 91c:	02 01       	.word	0x0102;	????	
 91e:	02 02       	.word	0x0202;	????	
 920:	00 01       	.word	0x0100;	????	
 922:	01 00       	Address 0x0000000000000922 is out of bounds.
Address 0x0000000000000924 is out of bounds.
and.b	@r15+,	-1(r15)	;0xffff(r15)

Disassembly of section .debug_frame:

00000000 <.debug_frame>:
   0:	0e 00       	.word	0x000e;	????	
   2:	00 00       	.word	0x0000;	????	
   4:	ff ff ff ff 	and.b	@r15+,	-1(r15)	;0xffff(r15)
   8:	01 00       	.word	0x0001;	????	
   a:	01 7e       	subc	r14,	r1	
   c:	00 0c       	.word	0x0c00;	????	
   e:	01 02       	.word	0x0201;	????	
  10:	80 01       	.word	0x0180;	????	
  12:	1a 00       	.word	0x001a;	????	
  14:	00 00       	.word	0x0000;	????	
  16:	00 00       	.word	0x0000;	????	
  18:	00 00       	.word	0x0000;	????	
  1a:	ac c1 52 00 	bic	@r1,	82(r12)	;0x0052(r12)
  1e:	42 0e       	.word	0x0e42;	????	
  20:	06 6c       	addc	r12,	r6	
  22:	0e 08       	.word	0x080e;	????	
  24:	42 0e       	.word	0x0e42;	????	
  26:	0a 44       	mov	r4,	r10	
  28:	0e 0c       	.word	0x0c0e;	????	
  2a:	40 2e       	jc	$-894    	;abs 0xfcac
  2c:	06 48       	mov	r8,	r6	
  2e:	0e 06       	.word	0x060e;	????	
  30:	18 00       	.word	0x0018;	????	
  32:	00 00       	.word	0x0000;	????	
  34:	00 00       	.word	0x0000;	????	
  36:	00 00       	.word	0x0000;	????	
  38:	fe c1 48 00 	bic.b	@r1+,	72(r14)	;0x0048(r14)
  3c:	42 0e       	.word	0x0e42;	????	
  3e:	06 64       	addc	r4,	r6	
  40:	0e 08       	.word	0x080e;	????	
  42:	44 0e       	.word	0x0e44;	????	
  44:	0a 40       	mov	r0,	r10	
  46:	2e 04       	.word	0x042e;	????	
  48:	46 0e       	.word	0x0e46;	????	
  4a:	06 00       	.word	0x0006;	????	
  4c:	0c 00       	.word	0x000c;	????	
  4e:	00 00       	.word	0x0000;	????	
  50:	00 00       	.word	0x0000;	????	
  52:	00 00       	.word	0x0000;	????	
  54:	46 c2       	bic.b	r2,	r6	
  56:	14 00       	.word	0x0014;	????	
  58:	42 0e       	.word	0x0e42;	????	
  5a:	04 00       	.word	0x0004;	????	
  5c:	0c 00       	.word	0x000c;	????	
  5e:	00 00       	.word	0x0000;	????	
  60:	00 00       	.word	0x0000;	????	
  62:	00 00       	.word	0x0000;	????	
  64:	5a c2 14 00 	bic.b	&0x0014,r10	
  68:	42 0e       	.word	0x0e42;	????	
  6a:	04 00       	.word	0x0004;	????	
  6c:	0c 00       	.word	0x000c;	????	
  6e:	00 00       	.word	0x0000;	????	
  70:	00 00       	.word	0x0000;	????	
  72:	00 00       	.word	0x0000;	????	
  74:	3e c0 64 01 	bic	#356,	r14	;#0x0164
  78:	44 0e       	.word	0x0e44;	????	
  7a:	60 00       	.word	0x0060;	????	
  7c:	0e 00       	.word	0x000e;	????	
  7e:	00 00       	.word	0x0000;	????	
  80:	00 00       	.word	0x0000;	????	
  82:	00 00       	.word	0x0000;	????	
  84:	6e c2       	bic.b	#4,	r14	;r2 As==10
  86:	5a 01       	.word	0x015a;	????	
  88:	42 0e       	.word	0x0e42;	????	
  8a:	04 8f       	sub	r15,	r4	
  8c:	02 00       	.word	0x0002;	????	
  8e:	08 00       	.word	0x0008;	????	
  90:	00 00       	.word	0x0000;	????	
  92:	00 00       	.word	0x0000;	????	
  94:	00 00       	.word	0x0000;	????	
  96:	c8 c3 0a 00 	bic.b	#0,	10(r8)	;r3 As==00, 0x000a(r8)
  9a:	0e 00       	.word	0x000e;	????	
  9c:	00 00       	.word	0x0000;	????	
  9e:	ff ff ff ff 	and.b	@r15+,	-1(r15)	;0xffff(r15)
  a2:	01 00       	.word	0x0001;	????	
  a4:	01 7e       	subc	r14,	r1	
  a6:	00 0c       	.word	0x0c00;	????	
  a8:	01 02       	.word	0x0201;	????	
  aa:	80 01       	.word	0x0180;	????	
  ac:	08 00       	.word	0x0008;	????	
  ae:	00 00       	.word	0x0000;	????	
  b0:	9a 00       	.word	0x009a;	????	
  b2:	00 00       	.word	0x0000;	????	
  b4:	d2 c3 18 00 	bic.b	#1,	&0x0018	;r3 As==01
  b8:	18 00       	.word	0x0018;	????	
  ba:	00 00       	.word	0x0000;	????	
  bc:	9a 00       	.word	0x009a;	????	
  be:	00 00       	.word	0x0000;	????	
  c0:	ea c3 44 00 	bic.b	#2,	68(r10)	;r3 As==10, 0x0044(r10)
  c4:	42 0e       	.word	0x0e42;	????	
  c6:	04 8b       	sub	r11,	r4	
  c8:	02 42       	mov	r2,	r2	
  ca:	0e 06       	.word	0x060e;	????	
  cc:	8a 03       	.word	0x038a;	????	
  ce:	42 0e       	.word	0x0e42;	????	
  d0:	08 89       	sub	r9,	r8	
  d2:	04 00       	.word	0x0004;	????	
  d4:	08 00       	.word	0x0008;	????	
  d6:	00 00       	.word	0x0000;	????	
  d8:	9a 00       	.word	0x009a;	????	
  da:	00 00       	.word	0x0000;	????	
  dc:	2e c4       	bic	@r4,	r14	
  de:	30 00       	.word	0x0030;	????	
  e0:	2c 00       	.word	0x002c;	????	
  e2:	00 00       	.word	0x0000;	????	
  e4:	9a 00       	.word	0x009a;	????	
  e6:	00 00       	.word	0x0000;	????	
  e8:	5e c4 a6 00 	bic.b	166(r4),r14	;0x00a6(r4)
  ec:	42 0e       	.word	0x0e42;	????	
  ee:	04 8b       	sub	r11,	r4	
  f0:	02 42       	mov	r2,	r2	
  f2:	0e 06       	.word	0x060e;	????	
  f4:	8a 03       	.word	0x038a;	????	
  f6:	42 0e       	.word	0x0e42;	????	
  f8:	08 89       	sub	r9,	r8	
  fa:	04 42       	mov	r2,	r4	
  fc:	0e 0a       	.word	0x0a0e;	????	
  fe:	88 05       	.word	0x0588;	????	
 100:	42 0e       	.word	0x0e42;	????	
 102:	0c 87       	sub	r7,	r12	
 104:	06 42       	mov	r2,	r6	
 106:	0e 0e       	.word	0x0e0e;	????	
 108:	86 07       	.word	0x0786;	????	
 10a:	42 0e       	.word	0x0e42;	????	
 10c:	10 85 08 00 	sub	8(r5),	r0	;0x0008(r5)
 110:	2a 00       	.word	0x002a;	????	
 112:	00 00       	.word	0x0000;	????	
 114:	9a 00       	.word	0x009a;	????	
 116:	00 00       	.word	0x0000;	????	
 118:	04 c5       	bic	r5,	r4	
 11a:	90 00       	.word	0x0090;	????	
 11c:	42 0e       	.word	0x0e42;	????	
 11e:	04 8b       	sub	r11,	r4	
 120:	02 42       	mov	r2,	r2	
 122:	0e 06       	.word	0x060e;	????	
 124:	8a 03       	.word	0x038a;	????	
 126:	42 0e       	.word	0x0e42;	????	
 128:	08 89       	sub	r9,	r8	
 12a:	04 42       	mov	r2,	r4	
 12c:	0e 0a       	.word	0x0a0e;	????	
 12e:	88 05       	.word	0x0588;	????	
 130:	42 0e       	.word	0x0e42;	????	
 132:	0c 87       	sub	r7,	r12	
 134:	06 42       	mov	r2,	r6	
 136:	0e 0e       	.word	0x0e0e;	????	
 138:	86 07       	.word	0x0786;	????	
 13a:	44 0e       	.word	0x0e44;	????	
 13c:	60 00       	.word	0x0060;	????	
 13e:	0e 00       	.word	0x000e;	????	
 140:	00 00       	.word	0x0000;	????	
 142:	ff ff ff ff 	and.b	@r15+,	-1(r15)	;0xffff(r15)
 146:	01 00       	.word	0x0001;	????	
 148:	01 7e       	subc	r14,	r1	
 14a:	00 0c       	.word	0x0c00;	????	
 14c:	01 02       	.word	0x0201;	????	
 14e:	80 01       	.word	0x0180;	????	
 150:	22 00       	.word	0x0022;	????	
 152:	00 00       	.word	0x0000;	????	
 154:	3e 01       	.word	0x013e;	????	
 156:	00 00       	.word	0x0000;	????	
 158:	94 c5 6a 00 	bic	106(r5),3650(r4);0x006a(r5), 0x0e42(r4)
 15c:	42 0e 
 15e:	04 8b       	sub	r11,	r4	
 160:	02 42       	mov	r2,	r2	
 162:	0e 06       	.word	0x060e;	????	
 164:	8a 03       	.word	0x038a;	????	
 166:	42 0e       	.word	0x0e42;	????	
 168:	08 89       	sub	r9,	r8	
 16a:	04 42       	mov	r2,	r4	
 16c:	0e 0a       	.word	0x0a0e;	????	
 16e:	88 05       	.word	0x0588;	????	
 170:	42 0e       	.word	0x0e42;	????	
 172:	0c 87       	sub	r7,	r12	
 174:	06 00       	.word	0x0006;	????	
 176:	08 00       	.word	0x0008;	????	
 178:	00 00       	.word	0x0000;	????	
 17a:	3e 01       	.word	0x013e;	????	
 17c:	00 00       	.word	0x0000;	????	
 17e:	fe c5 0e 00 	bic.b	@r5+,	14(r14)	;0x000e(r14)
 182:	0e 00       	.word	0x000e;	????	
 184:	00 00       	.word	0x0000;	????	
 186:	3e 01       	.word	0x013e;	????	
 188:	00 00       	.word	0x0000;	????	
 18a:	0c c6       	bic	r6,	r12	
 18c:	14 00       	.word	0x0014;	????	
 18e:	42 0e       	.word	0x0e42;	????	
 190:	04 8b       	sub	r11,	r4	
 192:	02 00       	.word	0x0002;	????	
 194:	1a 00       	.word	0x001a;	????	
 196:	00 00       	.word	0x0000;	????	
 198:	3e 01       	.word	0x013e;	????	
 19a:	00 00       	.word	0x0000;	????	
 19c:	20 c6       	bic	@r6,	r0	
 19e:	7a 00       	.word	0x007a;	????	
 1a0:	42 0e       	.word	0x0e42;	????	
 1a2:	04 8b       	sub	r11,	r4	
 1a4:	02 42       	mov	r2,	r2	
 1a6:	0e 06       	.word	0x060e;	????	
 1a8:	8a 03       	.word	0x038a;	????	
 1aa:	42 0e       	.word	0x0e42;	????	
 1ac:	08 89       	sub	r9,	r8	
 1ae:	04 44       	mov	r4,	r4	
 1b0:	0e 28       	jnc	$+30     	;abs 0x1ce
 1b2:	12 00       	.word	0x0012;	????	
 1b4:	00 00       	.word	0x0000;	????	
 1b6:	3e 01       	.word	0x013e;	????	
 1b8:	00 00       	.word	0x0000;	????	
 1ba:	9a c6 3a 00 	bic	58(r6),	3650(r10);0x003a(r6), 0x0e42(r10)
 1be:	42 0e 
 1c0:	04 8b       	sub	r11,	r4	
 1c2:	02 42       	mov	r2,	r2	
 1c4:	0e 06       	.word	0x060e;	????	
 1c6:	8a 03       	.word	0x038a;	????	
 1c8:	1c 00       	.word	0x001c;	????	
 1ca:	00 00       	.word	0x0000;	????	
 1cc:	3e 01       	.word	0x013e;	????	
 1ce:	00 00       	.word	0x0000;	????	
 1d0:	d4 c6 2a 01 	bic.b	298(r6),3650(r4);0x012a(r6), 0x0e42(r4)
 1d4:	42 0e 
 1d6:	04 8b       	sub	r11,	r4	
 1d8:	02 42       	mov	r2,	r2	
 1da:	0e 06       	.word	0x060e;	????	
 1dc:	8a 03       	.word	0x038a;	????	
 1de:	42 0e       	.word	0x0e42;	????	
 1e0:	08 89       	sub	r9,	r8	
 1e2:	04 42       	mov	r2,	r4	
 1e4:	0e 0a       	.word	0x0a0e;	????	
 1e6:	88 05       	.word	0x0588;	????	
 1e8:	0e 00       	.word	0x000e;	????	
 1ea:	00 00       	.word	0x0000;	????	
 1ec:	ff ff ff ff 	and.b	@r15+,	-1(r15)	;0xffff(r15)
 1f0:	01 00       	.word	0x0001;	????	
 1f2:	01 7e       	subc	r14,	r1	
 1f4:	00 0c       	.word	0x0c00;	????	
 1f6:	01 02       	.word	0x0201;	????	
 1f8:	80 01       	.word	0x0180;	????	
 1fa:	08 00       	.word	0x0008;	????	
 1fc:	00 00       	.word	0x0000;	????	
 1fe:	e8 01       	.word	0x01e8;	????	
 200:	00 00       	.word	0x0000;	????	
 202:	fe c7 06 00 	bic.b	@r7+,	6(r14)	;0x0006(r14)
 206:	08 00       	.word	0x0008;	????	
 208:	00 00       	.word	0x0000;	????	
 20a:	e8 01       	.word	0x01e8;	????	
 20c:	00 00       	.word	0x0000;	????	
 20e:	04 c8       	bic	r8,	r4	
 210:	06 00       	.word	0x0006;	????	
 212:	0e 00       	.word	0x000e;	????	
 214:	00 00       	.word	0x0000;	????	
 216:	ff ff ff ff 	and.b	@r15+,	-1(r15)	;0xffff(r15)
 21a:	01 00       	.word	0x0001;	????	
 21c:	01 7e       	subc	r14,	r1	
 21e:	00 0c       	.word	0x0c00;	????	
 220:	01 02       	.word	0x0201;	????	
 222:	80 01       	.word	0x0180;	????	
 224:	08 00       	.word	0x0008;	????	
 226:	00 00       	.word	0x0000;	????	
 228:	12 02       	.word	0x0212;	????	
 22a:	00 00       	.word	0x0000;	????	
 22c:	0a c8       	bic	r8,	r10	
 22e:	2a 01       	.word	0x012a;	????	
 230:	08 00       	.word	0x0008;	????	
 232:	00 00       	.word	0x0000;	????	
 234:	12 02       	.word	0x0212;	????	
 236:	00 00       	.word	0x0000;	????	
 238:	34 c9       	bic	@r9+,	r4	
 23a:	10 00       	.word	0x0010;	????	
 23c:	08 00       	.word	0x0008;	????	
 23e:	00 00       	.word	0x0000;	????	
 240:	12 02       	.word	0x0212;	????	
 242:	00 00       	.word	0x0000;	????	
 244:	44 c9       	bic.b	r9,	r4	
 246:	06 00       	.word	0x0006;	????	
 248:	08 00       	.word	0x0008;	????	
 24a:	00 00       	.word	0x0000;	????	
 24c:	12 02       	.word	0x0212;	????	
 24e:	00 00       	.word	0x0000;	????	
 250:	4a c9       	bic.b	r9,	r10	
 252:	0e 00       	.word	0x000e;	????	
 254:	08 00       	.word	0x0008;	????	
 256:	00 00       	.word	0x0000;	????	
 258:	12 02       	.word	0x0212;	????	
 25a:	00 00       	.word	0x0000;	????	
 25c:	58 c9 06 00 	bic.b	6(r9),	r8	;0x0006(r9)
 260:	08 00       	.word	0x0008;	????	
 262:	00 00       	.word	0x0000;	????	
 264:	12 02       	.word	0x0212;	????	
 266:	00 00       	.word	0x0000;	????	
 268:	5e c9 0e 00 	bic.b	14(r9),	r14	;0x000e(r9)
 26c:	0e 00       	.word	0x000e;	????	
 26e:	00 00       	.word	0x0000;	????	
 270:	ff ff ff ff 	and.b	@r15+,	-1(r15)	;0xffff(r15)
 274:	01 00       	.word	0x0001;	????	
 276:	01 7e       	subc	r14,	r1	
 278:	00 0c       	.word	0x0c00;	????	
 27a:	01 02       	.word	0x0201;	????	
 27c:	80 01       	.word	0x0180;	????	
 27e:	1c 00       	.word	0x001c;	????	
 280:	00 00       	.word	0x0000;	????	
 282:	6c 02       	.word	0x026c;	????	
 284:	00 00       	.word	0x0000;	????	
 286:	c8 c9 6a 00 	bic.b	r9,	106(r8)	;0x006a(r8)
 28a:	42 0e       	.word	0x0e42;	????	
 28c:	04 8b       	sub	r11,	r4	
 28e:	02 42       	mov	r2,	r2	
 290:	0e 06       	.word	0x060e;	????	
 292:	8a 03       	.word	0x038a;	????	
 294:	42 0e       	.word	0x0e42;	????	
 296:	08 89       	sub	r9,	r8	
 298:	04 42       	mov	r2,	r4	
 29a:	0e 0a       	.word	0x0a0e;	????	
 29c:	88 05       	.word	0x0588;	????	

Disassembly of section .debug_str:

00000000 <.debug_str>:
   0:	5f 5f 50 31 	add.b	12624(r15),r15	;0x3150(r15)
   4:	4f 55       	add.b	r5,	r15	
   6:	54 00       	.word	0x0054;	????	
   8:	73 68       	.word	0x6873;	????	Illegal as 2-op instr
   a:	65 6c       	addc.b	@r12,	r5	
   c:	6c 5f       	add.b	@r15,	r12	
   e:	70 72       	subc.b	#8,	r0	;r2 As==11
  10:	6f 63       	addc.b	#2,	r15	;r3 As==10
  12:	65 73       	subc.b	#2,	r5	;r3 As==10
  14:	73 00       	.word	0x0073;	????	
  16:	73 68       	.word	0x6873;	????	Illegal as 2-op instr
  18:	65 6c       	addc.b	@r12,	r5	
  1a:	6c 5f       	add.b	@r15,	r12	
  1c:	63 6d       	.word	0x6d63;	????	Illegal as 2-op instr
  1e:	64 00       	.word	0x0064;	????	
  20:	5f 5f 50 31 	add.b	12624(r15),r15	;0x3150(r15)
  24:	44 49       	mov.b	r9,	r4	
  26:	52 00       	.word	0x0052;	????	
  28:	6d 61       	addc.b	@r1,	r13	
  2a:	69 6e       	addc.b	@r14,	r9	
  2c:	00 5f       	add	r15,	r0	
  2e:	5f 54 41 30 	add.b	12353(r4),r15	;0x3041(r4)
  32:	43 43       	clr.b	#0		;r3 As==00
  34:	54 4c 30 00 	mov.b	48(r12),r4	;0x0030(r12)
  38:	73 68       	.word	0x6873;	????	Illegal as 2-op instr
  3a:	65 6c       	addc.b	@r12,	r5	
  3c:	6c 5f       	add.b	@r15,	r12	
  3e:	63 6d       	.word	0x6d63;	????	Illegal as 2-op instr
  40:	64 5f       	add.b	@r15,	r4	
  42:	68 65       	addc.b	@r5,	r8	
  44:	6c 70       	subc.b	@r0,	r12	
  46:	00 73       	sbc	r0		
  48:	68 65       	addc.b	@r5,	r8	
  4a:	6c 6c       	addc.b	@r12,	r12	
  4c:	2e 63       	addc	#2,	r14	;r3 As==10
  4e:	00 73       	sbc	r0		
  50:	68 65       	addc.b	@r5,	r8	
  52:	6c 6c       	addc.b	@r12,	r12	
  54:	5f 63       	addc.b	#1,	r15	;r3 As==01
  56:	6d 64       	addc.b	@r4,	r13	
  58:	5f 61 72 67 	addc.b	26482(r1),r15	;0x6772(r1)
  5c:	00 5f       	add	r15,	r0	
  5e:	5f 50 32 4f 	add.b	20274(r0),r15	;PC rel. 0x4f92
  62:	55 54 00 66 	add.b	26112(r4),r5	;0x6600(r4)
  66:	75 6e       	addc.b	@r14+,	r5	
  68:	63 00       	.word	0x0063;	????	
  6a:	6c 6f       	addc.b	@r15,	r12	
  6c:	6e 67       	addc.b	@r7,	r14	
  6e:	20 6c       	addc	@r12,	r0	
  70:	6f 6e       	addc.b	@r14,	r15	
  72:	67 20       	jnz	$+208    	;abs 0x142
  74:	69 6e       	addc.b	@r14,	r9	
  76:	74 00       	.word	0x0074;	????	
  78:	5f 5f 44 43 	add.b	17220(r15),r15	;0x4344(r15)
  7c:	4f 43       	clr.b	r15		
  7e:	54 4c 00 5f 	mov.b	24320(r12),r4	;0x5f00(r12)
  82:	5f 57 44 54 	add.b	21572(r7),r15	;0x5444(r7)
  86:	43 54       	.word	0x5443;	????	Illegal as 2-op instr
  88:	4c 00       	.word	0x004c;	????	
  8a:	47 4e       	mov.b	r14,	r7	
  8c:	55 20       	jnz	$+172    	;abs 0x138
  8e:	43 20       	jnz	$+136    	;abs 0x116
  90:	34 2e       	jc	$-918    	;abs 0xfcfa
  92:	36 2e       	jc	$-914    	;abs 0xfd00
  94:	33 20       	jnz	$+104    	;abs 0xfc
  96:	32 30       	jn	$+102    	;abs 0xfc
  98:	31 32       	jn	$-924    	;abs 0xfcfc
  9a:	30 33       	jn	$-414    	;abs 0xfefc
  9c:	30 31       	jn	$+610    	;abs 0x2fe
  9e:	20 28       	jnc	$+66     	;abs 0xe0
  a0:	6d 73       	subc.b	#2,	r13	;r3 As==10
  a2:	70 67       	addc.b	@r7+,	r0	
  a4:	63 63       	.word	0x6363;	????	Illegal as 2-op instr
  a6:	20 4c       	br	@r12		
  a8:	54 53       	inc.b	r4		
  aa:	20 32       	jn	$-958    	;abs 0xfcec
  ac:	30 31       	jn	$+610    	;abs 0x30e
  ae:	32 30       	jn	$+102    	;abs 0x114
  b0:	34 30       	jn	$+106    	;abs 0x11a
  b2:	36 20       	jnz	$+110    	;abs 0x120
  b4:	75 6e       	addc.b	@r14+,	r5	
  b6:	70 61       	addc.b	@r1+,	r0	
  b8:	74 63       	addc.b	#-1,	r4	;r3 As==11
  ba:	68 65       	addc.b	@r5,	r8	
  bc:	64 29       	jnc	$+714    	;abs 0x386
  be:	00 5f       	add	r15,	r0	
  c0:	5f 50 32 44 	add.b	17458(r0),r15	;PC rel. 0x44f4
  c4:	49 52       	add.b	r2,	r9	
  c6:	00 73       	sbc	r0		
  c8:	68 65       	addc.b	@r5,	r8	
  ca:	6c 6c       	addc.b	@r12,	r12	
  cc:	5f 63       	addc.b	#1,	r15	;r3 As==01
  ce:	6d 64       	addc.b	@r4,	r13	
  d0:	5f 68 65 78 	addc.b	30821(r8),r15	;0x7865(r8)
  d4:	64 00       	.word	0x0064;	????	
  d6:	5f 5f 50 31 	add.b	12624(r15),r15	;0x3150(r15)
  da:	52 45 4e 00 	mov.b	78(r5),	r2	;0x004e(r5)
  de:	6d 6f       	addc.b	@r15,	r13	
  e0:	64 65       	addc.b	@r5,	r4	
  e2:	53 77       	.word	0x7753;	????	Illegal as 2-op instr
  e4:	69 74       	subc.b	@r4,	r9	
  e6:	63 68       	.word	0x6863;	????	Illegal as 2-op instr
  e8:	00 5f       	add	r15,	r0	
  ea:	5f 50 31 49 	add.b	18737(r0),r15	;PC rel. 0x4a1d
  ee:	45 53       	add.b	#0,	r5	;r3 As==00
  f0:	00 5f       	add	r15,	r0	
  f2:	5f 43       	mov.b	#1,	r15	;r3 As==01
  f4:	41 4c       	mov.b	r12,	r1	
  f6:	44 43       	clr.b	r4		
  f8:	4f 5f       	rla.b	r15		
  fa:	31 4d       	mov	@r13+,	r1	
  fc:	48 5a       	add.b	r10,	r8	
  fe:	00 75       	subc	r5,	r0	
 100:	6e 73       	subc.b	#2,	r14	;r3 As==10
 102:	69 67       	addc.b	@r7,	r9	
 104:	6e 65       	addc.b	@r5,	r14	
 106:	64 20       	jnz	$+202    	;abs 0x1d0
 108:	63 68       	.word	0x6863;	????	Illegal as 2-op instr
 10a:	61 72       	subc.b	#4,	r1	;r2 As==10
 10c:	00 6c       	addc	r12,	r0	
 10e:	6f 6e       	addc.b	@r14,	r15	
 110:	67 20       	jnz	$+208    	;abs 0x1e0
 112:	6c 6f       	addc.b	@r15,	r12	
 114:	6e 67       	addc.b	@r7,	r14	
 116:	20 75       	subc	@r5,	r0	
 118:	6e 73       	subc.b	#2,	r14	;r3 As==10
 11a:	69 67       	addc.b	@r7,	r9	
 11c:	6e 65       	addc.b	@r5,	r14	
 11e:	64 20       	jnz	$+202    	;abs 0x1e8
 120:	69 6e       	addc.b	@r14,	r9	
 122:	74 00       	.word	0x0074;	????	
 124:	5f 5f 50 32 	add.b	12880(r15),r15	;0x3250(r15)
 128:	53 45       	.word	0x4553;	????	Illegal as 2-op instr
 12a:	4c 00       	.word	0x004c;	????	
 12c:	63 6d       	.word	0x6d63;	????	Illegal as 2-op instr
 12e:	64 5f       	add.b	@r15,	r4	
 130:	6c 69       	addc.b	@r9,	r12	
 132:	6e 65       	addc.b	@r5,	r14	
 134:	00 69       	addc	r9,	r0	
 136:	6e 70       	subc.b	@r0,	r14	
 138:	75 74       	subc.b	@r4+,	r5	
 13a:	00 64       	addc	r4,	r0	
 13c:	65 73       	subc.b	#2,	r5	;r3 As==10
 13e:	63 00       	.word	0x0063;	????	
 140:	73 68       	.word	0x6873;	????	Illegal as 2-op instr
 142:	65 6c       	addc.b	@r12,	r5	
 144:	6c 5f       	add.b	@r15,	r12	
 146:	63 6d       	.word	0x6d63;	????	Illegal as 2-op instr
 148:	64 5f       	add.b	@r15,	r4	
 14a:	61 72       	subc.b	#4,	r1	;r2 As==10
 14c:	67 73       	subc.b	#2,	r7	;r3 As==10
 14e:	00 73       	sbc	r0		
 150:	68 65       	addc.b	@r5,	r8	
 152:	6c 6c       	addc.b	@r12,	r12	
 154:	5f 63       	addc.b	#1,	r15	;r3 As==01
 156:	6d 64       	addc.b	@r4,	r13	
 158:	5f 61 72 67 	addc.b	26482(r1),r15	;0x6772(r1)
 15c:	74 00       	.word	0x0074;	????	
 15e:	73 68       	.word	0x6873;	????	Illegal as 2-op instr
 160:	6f 72       	subc.b	#4,	r15	;r2 As==10
 162:	74 20       	jnz	$+234    	;abs 0x24c
 164:	75 6e       	addc.b	@r14+,	r5	
 166:	73 69       	.word	0x6973;	????	Illegal as 2-op instr
 168:	67 6e       	addc.b	@r14,	r7	
 16a:	65 64       	addc.b	@r4,	r5	
 16c:	20 69       	addc	@r9,	r0	
 16e:	6e 74       	subc.b	@r4,	r14	
 170:	00 6d       	addc	r13,	r0	
 172:	79 5f       	add.b	@r15+,	r9	
 174:	73 68       	.word	0x6873;	????	Illegal as 2-op instr
 176:	65 6c       	addc.b	@r12,	r5	
 178:	6c 5f       	add.b	@r15,	r12	
 17a:	63 6d       	.word	0x6d63;	????	Illegal as 2-op instr
 17c:	64 73       	subc.b	#2,	r4	;r3 As==10
 17e:	00 5f       	add	r15,	r0	
 180:	5f 50 31 49 	add.b	18737(r0),r15	;PC rel. 0x4ab3
 184:	46 47       	mov.b	r7,	r6	
 186:	00 5f       	add	r15,	r0	
 188:	5f 54 41 30 	add.b	12353(r4),r15	;0x3041(r4)
 18c:	43 54       	.word	0x5443;	????	Illegal as 2-op instr
 18e:	4c 00       	.word	0x004c;	????	
 190:	2f 6d       	addc	@r13,	r15	
 192:	65 64       	addc.b	@r4,	r5	
 194:	69 61       	addc.b	@r1,	r9	
 196:	2f 73       	subc	#2,	r15	;r3 As==10
 198:	74 75       	subc.b	@r5+,	r4	
 19a:	66 66       	addc.b	@r6,	r6	
 19c:	2f 64       	addc	@r4,	r15	
 19e:	6f 63       	addc.b	#2,	r15	;r3 As==10
 1a0:	75 6d       	addc.b	@r13+,	r5	
 1a2:	65 6e       	addc.b	@r14,	r5	
 1a4:	74 73       	subc.b	#-1,	r4	;r3 As==11
 1a6:	2f 43       	mov	#2,	r15	;r3 As==10
 1a8:	6f 6d       	addc.b	@r13,	r15	
 1aa:	70 20       	jnz	$+226    	;abs 0x28c
 1ac:	4f 72       	subc.b	r2,	r15	
 1ae:	67 2f       	jc	$-304    	;abs 0x7e
 1b0:	67 69       	addc.b	@r9,	r7	
 1b2:	74 2f       	jc	$-278    	;abs 0x9c
 1b4:	61 34       	jge	$+196    	;abs 0x278
 1b6:	00 5f       	add	r15,	r0	
 1b8:	5f 42 43 53 	mov.b	&0x5343,r15	
 1bc:	43 54       	.word	0x5443;	????	Illegal as 2-op instr
 1be:	4c 31       	jn	$+666    	;abs 0x458
 1c0:	00 5f       	add	r15,	r0	
 1c2:	5f 50 31 49 	add.b	18737(r0),r15	;PC rel. 0x4af5
 1c6:	45 00       	.word	0x0045;	????	
 1c8:	63 6f       	.word	0x6f63;	????	Illegal as 2-op instr
 1ca:	75 6e       	addc.b	@r14+,	r5	
 1cc:	74 00       	.word	0x0074;	????	
 1ce:	5f 5f 54 41 	add.b	16724(r15),r15	;0x4154(r15)
 1d2:	30 43       	br	#-1		;r3 As==11
 1d4:	43 52       	.word	0x5243;	????	Illegal as 2-op instr
 1d6:	30 00       	.word	0x0030;	????	
 1d8:	54 69 6d 65 	addc.b	25965(r9),r4	;0x656d(r9)
 1dc:	72 30       	jn	$+230    	;abs 0x2c2
 1de:	5f 41 30 5f 	mov.b	24368(r1),r15	;0x5f30(r1)
 1e2:	49 53       	add.b	#0,	r9	;r3 As==00
 1e4:	52 00       	.word	0x0052;	????	
 1e6:	64 69       	addc.b	@r9,	r4	
 1e8:	67 69       	addc.b	@r9,	r7	
 1ea:	74 00       	.word	0x0074;	????	
 1ec:	5f 5f 43 41 	add.b	16707(r15),r15	;0x4143(r15)
 1f0:	4c 42       	mov.b	r2,	r12	
 1f2:	43 31       	jn	$+648    	;abs 0x47a
 1f4:	5f 31       	jn	$+704    	;abs 0x4b4
 1f6:	4d 48       	mov.b	r8,	r13	
 1f8:	5a 00       	.word	0x005a;	????	
 1fa:	2f 68       	addc	@r8,	r15	
 1fc:	6f 6d       	addc.b	@r13,	r15	
 1fe:	65 2f       	jc	$-308    	;abs 0xca
 200:	6d 61       	addc.b	@r1,	r13	
 202:	63 2f       	jc	$-312    	;abs 0xca
 204:	44 6f       	addc.b	r15,	r4	
 206:	77 6e       	addc.b	@r14+,	r7	
 208:	6c 6f       	addc.b	@r15,	r12	
 20a:	61 64       	addc.b	@r4,	r1	
 20c:	73 2f       	jc	$-280    	;abs 0xf4
 20e:	6c 69       	addc.b	@r9,	r12	
 210:	62 65       	addc.b	@r5,	r2	
 212:	6d 62       	addc.b	#4,	r13	;r2 As==10
 214:	2d 6d       	addc	@r13,	r13	
 216:	61 73       	subc.b	#2,	r1	;r3 As==10
 218:	74 65       	addc.b	@r5+,	r4	
 21a:	72 2f       	jc	$-282    	;abs 0x100
 21c:	6c 69       	addc.b	@r9,	r12	
 21e:	62 73       	subc.b	#2,	r2	;r3 As==10
 220:	68 65       	addc.b	@r5,	r8	
 222:	6c 6c       	addc.b	@r12,	r12	
 224:	2f 73       	subc	#2,	r15	;r3 As==10
 226:	72 63       	addc.b	#-1,	r2	;r3 As==11
 228:	00 73       	sbc	r0		
 22a:	68 65       	addc.b	@r5,	r8	
 22c:	6c 6c       	addc.b	@r12,	r12	
 22e:	5f 61 72 67 	addc.b	26482(r1),r15	;0x6772(r1)
 232:	5f 70 61 72 	subc.b	29281(r0),r15	;PC rel. 0x7495
 236:	73 65       	.word	0x6573;	????	Illegal as 2-op instr
 238:	72 00       	.word	0x0072;	????	
 23a:	63 6d       	.word	0x6d63;	????	Illegal as 2-op instr
 23c:	64 5f       	add.b	@r15,	r4	
 23e:	6c 69       	addc.b	@r9,	r12	
 240:	6e 65       	addc.b	@r5,	r14	
 242:	5f 6c 65 6e 	addc.b	28261(r12),r15	;0x6e65(r12)
 246:	00 73       	sbc	r0		
 248:	68 65       	addc.b	@r5,	r8	
 24a:	6c 6c       	addc.b	@r12,	r12	
 24c:	5f 73       	subc.b	#1,	r15	;r3 As==01
 24e:	74 72       	subc.b	#8,	r4	;r2 As==11
 250:	5f 63       	addc.b	#1,	r15	;r3 As==01
 252:	6d 70       	subc.b	@r0,	r13	
 254:	00 73       	sbc	r0		
 256:	70 6f       	addc.b	@r15+,	r0	
 258:	73 00       	.word	0x0073;	????	
 25a:	63 6d       	.word	0x6d63;	????	Illegal as 2-op instr
 25c:	64 5f       	add.b	@r15,	r4	
 25e:	6c 65       	addc.b	@r5,	r12	
 260:	6e 00       	.word	0x006e;	????	
 262:	73 74       	.word	0x7473;	????	Illegal as 2-op instr
 264:	72 32       	jn	$-794    	;abs 0xff4a
 266:	00 61       	addc	r1,	r0	
 268:	72 67       	addc.b	@r7+,	r2	
 26a:	63 00       	.word	0x0063;	????	
 26c:	73 68       	.word	0x6873;	????	Illegal as 2-op instr
 26e:	65 6c       	addc.b	@r12,	r5	
 270:	6c 5f       	add.b	@r15,	r12	
 272:	73 74       	.word	0x7473;	????	Illegal as 2-op instr
 274:	72 5f       	add.b	@r15+,	r2	
 276:	6c 65       	addc.b	@r5,	r12	
 278:	6e 00       	.word	0x006e;	????	
 27a:	6c 65       	addc.b	@r5,	r12	
 27c:	6e 31       	jn	$+734    	;abs 0x55a
 27e:	00 6c       	addc	r12,	r0	
 280:	65 6e       	addc.b	@r14,	r5	
 282:	32 00       	.word	0x0032;	????	
 284:	73 68       	.word	0x6873;	????	Illegal as 2-op instr
 286:	65 6c       	addc.b	@r12,	r5	
 288:	6c 5f       	add.b	@r15,	r12	
 28a:	70 72       	subc.b	#8,	r0	;r2 As==11
 28c:	6f 63       	addc.b	#2,	r15	;r3 As==10
 28e:	65 73       	subc.b	#2,	r5	;r3 As==10
 290:	73 5f       	.word	0x5f73;	????	Illegal as 2-op instr
 292:	63 6d       	.word	0x6d63;	????	Illegal as 2-op instr
 294:	64 73       	subc.b	#2,	r4	;r3 As==10
 296:	00 73       	sbc	r0		
 298:	68 65       	addc.b	@r5,	r8	
 29a:	6c 6c       	addc.b	@r12,	r12	
 29c:	5f 70 61 72 	subc.b	29281(r0),r15	;PC rel. 0x74ff
 2a0:	73 65       	.word	0x6573;	????	Illegal as 2-op instr
 2a2:	5f 69 6e 74 	addc.b	29806(r9),r15	;0x746e(r9)
 2a6:	00 73       	sbc	r0		
 2a8:	74 72       	subc.b	#8,	r4	;r2 As==11
 2aa:	31 00       	.word	0x0031;	????	
 2ac:	63 69       	.word	0x6963;	????	Illegal as 2-op instr
 2ae:	6f 5f       	add.b	@r15,	r15	
 2b0:	70 72       	subc.b	#8,	r0	;r2 As==11
 2b2:	69 6e       	addc.b	@r14,	r9	
 2b4:	74 62       	addc.b	#8,	r4	;r2 As==11
 2b6:	00 63       	adc	r0		
 2b8:	69 6f       	addc.b	@r15,	r9	
 2ba:	5f 70 72 69 	subc.b	26994(r0),r15	;PC rel. 0x6c2e
 2be:	6e 74       	subc.b	@r4,	r14	
 2c0:	66 00       	.word	0x0066;	????	
 2c2:	5f 5f 62 75 	add.b	30050(r15),r15	;0x7562(r15)
 2c6:	69 6c       	addc.b	@r12,	r9	
 2c8:	74 69       	addc.b	@r9+,	r4	
 2ca:	6e 5f       	add.b	@r15,	r14	
 2cc:	76 61       	addc.b	@r1+,	r6	
 2ce:	5f 6c 69 73 	addc.b	29545(r12),r15	;0x7369(r12)
 2d2:	74 00       	.word	0x0074;	????	
 2d4:	63 69       	.word	0x6963;	????	Illegal as 2-op instr
 2d6:	6f 5f       	add.b	@r15,	r15	
 2d8:	70 72       	subc.b	#8,	r0	;r2 As==11
 2da:	69 6e       	addc.b	@r14,	r9	
 2dc:	74 69       	addc.b	@r9+,	r4	
 2de:	00 5f       	add	r15,	r0	
 2e0:	78 74       	subc.b	@r4+,	r8	
 2e2:	6f 61       	addc.b	@r1,	r15	
 2e4:	00 62       	addc	r2,	r0	
 2e6:	61 64       	addc.b	@r4,	r1	
 2e8:	5f 66 6d 74 	addc.b	29805(r6),r15	;0x746d(r6)
 2ec:	00 73       	sbc	r0		
 2ee:	69 7a       	subc.b	@r10,	r9	
 2f0:	65 00       	.word	0x0065;	????	
 2f2:	5f 70 75 74 	subc.b	29813(r0),r15	;PC rel. 0x7769
 2f6:	68 00       	.word	0x0068;	????	
 2f8:	63 6f       	.word	0x6f63;	????	Illegal as 2-op instr
 2fa:	6e 69       	addc.b	@r9,	r14	
 2fc:	6f 2e       	jc	$-800    	;abs 0xffdc
 2fe:	63 00       	.word	0x0063;	????	
 300:	66 6f       	addc.b	@r15,	r6	
 302:	72 6d       	addc.b	@r13+,	r2	
 304:	61 74       	subc.b	@r4,	r1	
 306:	00 63       	adc	r0		
 308:	69 6f       	addc.b	@r15,	r9	
 30a:	5f 70 72 69 	subc.b	26994(r0),r15	;PC rel. 0x6c7e
 30e:	6e 74       	subc.b	@r4,	r14	
 310:	00 5f       	add	r15,	r0	
 312:	5f 67 6e 75 	addc.b	30062(r7),r15	;0x756e(r7)
 316:	63 5f       	.word	0x5f63;	????	Illegal as 2-op instr
 318:	76 61       	addc.b	@r1+,	r6	
 31a:	5f 6c 69 73 	addc.b	29545(r12),r15	;0x7369(r12)
 31e:	74 00       	.word	0x0074;	????	
 320:	2f 68       	addc	@r8,	r15	
 322:	6f 6d       	addc.b	@r13,	r15	
 324:	65 2f       	jc	$-308    	;abs 0x1f0
 326:	6d 61       	addc.b	@r1,	r13	
 328:	63 2f       	jc	$-312    	;abs 0x1f0
 32a:	44 6f       	addc.b	r15,	r4	
 32c:	77 6e       	addc.b	@r14+,	r7	
 32e:	6c 6f       	addc.b	@r15,	r12	
 330:	61 64       	addc.b	@r4,	r1	
 332:	73 2f       	jc	$-280    	;abs 0x21a
 334:	6c 69       	addc.b	@r9,	r12	
 336:	62 65       	addc.b	@r5,	r2	
 338:	6d 62       	addc.b	#4,	r13	;r2 As==10
 33a:	2d 6d       	addc	@r13,	r13	
 33c:	61 73       	subc.b	#2,	r1	;r3 As==10
 33e:	74 65       	addc.b	@r5+,	r4	
 340:	72 2f       	jc	$-282    	;abs 0x226
 342:	6c 69       	addc.b	@r9,	r12	
 344:	62 63       	addc.b	#2,	r2	;r3 As==10
 346:	6f 6e       	addc.b	@r14,	r15	
 348:	69 6f       	addc.b	@r15,	r9	
 34a:	2f 73       	subc	#2,	r15	;r3 As==10
 34c:	72 63       	addc.b	#-1,	r2	;r3 As==11
 34e:	00 62       	addc	r2,	r0	
 350:	75 66       	addc.b	@r6+,	r5	
 352:	66 65       	addc.b	@r5,	r6	
 354:	72 00       	.word	0x0072;	????	
 356:	63 69       	.word	0x6963;	????	Illegal as 2-op instr
 358:	6f 5f       	add.b	@r15,	r15	
 35a:	67 65       	addc.b	@r5,	r7	
 35c:	74 63       	addc.b	#-1,	r4	;r3 As==11
 35e:	00 63       	adc	r0		
 360:	69 6f       	addc.b	@r15,	r9	
 362:	5f 70 72 69 	subc.b	26994(r0),r15	;PC rel. 0x6cd6
 366:	6e 74       	subc.b	@r4,	r14	
 368:	63 00       	.word	0x0063;	????	
 36a:	63 6f       	.word	0x6f63;	????	Illegal as 2-op instr
 36c:	6e 69       	addc.b	@r9,	r14	
 36e:	6f 5f       	add.b	@r15,	r15	
 370:	73 65       	.word	0x6573;	????	Illegal as 2-op instr
 372:	72 69       	addc.b	@r9+,	r2	
 374:	61 6c       	addc.b	@r12,	r1	
 376:	2e 63       	addc	#2,	r14	;r3 As==10
 378:	00 63       	adc	r0		
 37a:	6c 6b       	addc.b	@r11,	r12	
 37c:	73 70       	.word	0x7073;	????	Illegal as 2-op instr
 37e:	65 65       	addc.b	@r5,	r5	
 380:	64 00       	.word	0x0064;	????	
 382:	73 65       	.word	0x6573;	????	Illegal as 2-op instr
 384:	72 69       	addc.b	@r9+,	r2	
 386:	61 6c       	addc.b	@r12,	r1	
 388:	5f 72 65 63 	subc.b	&0x6365,r15	
 38c:	76 5f       	add.b	@r15+,	r6	
 38e:	62 6c       	addc.b	@r12,	r2	
 390:	6f 63       	addc.b	#2,	r15	;r3 As==10
 392:	6b 69       	addc.b	@r9,	r11	
 394:	6e 67       	addc.b	@r7,	r14	
 396:	00 73       	sbc	r0		
 398:	65 72       	subc.b	#4,	r5	;r2 As==10
 39a:	69 61       	addc.b	@r1,	r9	
 39c:	6c 5f       	add.b	@r15,	r12	
 39e:	75 73       	subc.b	#-1,	r5	;r3 As==11
 3a0:	63 69       	.word	0x6963;	????	Illegal as 2-op instr
 3a2:	5f 6d 73 70 	addc.b	28787(r13),r15	;0x7073(r13)
 3a6:	34 33       	jn	$-406    	;abs 0x210
 3a8:	30 2e       	jc	$-926    	;abs 0xa
 3aa:	63 00       	.word	0x0063;	????	
 3ac:	5f 5f 55 43 	add.b	17237(r15),r15	;0x4355(r15)
 3b0:	41 30       	jn	$+132    	;abs 0x434
 3b2:	52 58 42 55 	add.b	21826(r8),r2	;0x5542(r8)
 3b6:	46 00       	.word	0x0046;	????	
 3b8:	5f 5f 55 43 	add.b	17237(r15),r15	;0x4355(r15)
 3bc:	41 30       	jn	$+132    	;abs 0x440
 3be:	43 54       	.word	0x5443;	????	Illegal as 2-op instr
 3c0:	4c 31       	jn	$+666    	;abs 0x65a
 3c2:	00 73       	sbc	r0		
 3c4:	65 72       	subc.b	#4,	r5	;r2 As==10
 3c6:	69 61       	addc.b	@r1,	r9	
 3c8:	6c 5f       	add.b	@r15,	r12	
 3ca:	72 65       	addc.b	@r5+,	r2	
 3cc:	63 76       	.word	0x7663;	????	Illegal as 2-op instr
 3ce:	00 73       	sbc	r0		
 3d0:	65 72       	subc.b	#4,	r5	;r2 As==10
 3d2:	69 61       	addc.b	@r1,	r9	
 3d4:	6c 5f       	add.b	@r15,	r12	
 3d6:	73 65       	.word	0x6573;	????	Illegal as 2-op instr
 3d8:	6e 64       	addc.b	@r4,	r14	
 3da:	00 5f       	add	r15,	r0	
 3dc:	5f 50 31 53 	add.b	21297(r0),r15	;PC rel. 0x570f
 3e0:	45 4c       	mov.b	r12,	r5	
 3e2:	32 00       	.word	0x0032;	????	
 3e4:	5f 5f 50 31 	add.b	12624(r15),r15	;0x3150(r15)
 3e8:	53 45       	.word	0x4553;	????	Illegal as 2-op instr
 3ea:	4c 00       	.word	0x004c;	????	
 3ec:	5f 5f 55 43 	add.b	17237(r15),r15	;0x4355(r15)
 3f0:	41 30       	jn	$+132    	;abs 0x474
 3f2:	42 52       	rla.b	r2		
 3f4:	31 00       	.word	0x0031;	????	
 3f6:	64 61       	addc.b	@r1,	r4	
 3f8:	74 61       	addc.b	@r1+,	r4	
 3fa:	00 62       	addc	r2,	r0	
 3fc:	61 75       	subc.b	@r5,	r1	
 3fe:	64 72       	subc.b	#4,	r4	;r2 As==10
 400:	61 74       	subc.b	@r4,	r1	
 402:	65 00       	.word	0x0065;	????	
 404:	73 65       	.word	0x6573;	????	Illegal as 2-op instr
 406:	72 69       	addc.b	@r9+,	r2	
 408:	61 6c       	addc.b	@r12,	r1	
 40a:	5f 63       	addc.b	#1,	r15	;r3 As==01
 40c:	6c 6b       	addc.b	@r11,	r12	
 40e:	5f 69 6e 69 	addc.b	26990(r9),r15	;0x696e(r9)
 412:	74 00       	.word	0x0074;	????	
 414:	5f 5f 55 43 	add.b	17237(r15),r15	;0x4355(r15)
 418:	41 30       	jn	$+132    	;abs 0x49c
 41a:	54 58 42 55 	add.b	21826(r8),r4	;0x5542(r8)
 41e:	46 00       	.word	0x0046;	????	
 420:	73 65       	.word	0x6573;	????	Illegal as 2-op instr
 422:	72 69       	addc.b	@r9+,	r2	
 424:	61 6c       	addc.b	@r12,	r1	
 426:	5f 69 6e 69 	addc.b	26990(r9),r15	;0x696e(r9)
 42a:	74 00       	.word	0x0074;	????	
 42c:	5f 5f 55 43 	add.b	17237(r15),r15	;0x4355(r15)
 430:	41 30       	jn	$+132    	;abs 0x4b4
 432:	4d 43       	clr.b	r13		
 434:	54 4c 00 73 	mov.b	29440(r12),r4	;0x7300(r12)
 438:	65 72       	subc.b	#4,	r5	;r2 As==10
 43a:	69 61       	addc.b	@r1,	r9	
 43c:	6c 5f       	add.b	@r15,	r12	
 43e:	73 65       	.word	0x6573;	????	Illegal as 2-op instr
 440:	6e 64       	addc.b	@r4,	r14	
 442:	5f 62 6c 6f 	addc.b	&0x6f6c,r15	
 446:	63 6b       	.word	0x6b63;	????	Illegal as 2-op instr
 448:	69 6e       	addc.b	@r14,	r9	
 44a:	67 00       	.word	0x0067;	????	
 44c:	5f 5f 49 46 	add.b	17993(r15),r15	;0x4649(r15)
 450:	47 32       	jn	$-880    	;abs 0xe0
 452:	00 5f       	add	r15,	r0	
 454:	5f 55 43 41 	add.b	16707(r5),r15	;0x4143(r5)
 458:	30 42       	br	#8		;r2 As==11
 45a:	52 30       	jn	$+166    	;abs 0x500
 45c:	00 2f       	jc	$-510    	;abs 0x25e
 45e:	68 6f       	addc.b	@r15,	r8	
 460:	6d 65       	addc.b	@r5,	r13	
 462:	2f 6d       	addc	@r13,	r15	
 464:	61 63       	addc.b	#2,	r1	;r3 As==10
 466:	2f 44       	mov	@r4,	r15	
 468:	6f 77       	subc.b	@r7,	r15	
 46a:	6e 6c       	addc.b	@r12,	r14	
 46c:	6f 61       	addc.b	@r1,	r15	
 46e:	64 73       	subc.b	#2,	r4	;r3 As==10
 470:	2f 6c       	addc	@r12,	r15	
 472:	69 62       	addc.b	#4,	r9	;r2 As==10
 474:	65 6d       	addc.b	@r13,	r5	
 476:	62 2d       	jc	$+710    	;abs 0x73c
 478:	6d 61       	addc.b	@r1,	r13	
 47a:	73 74       	.word	0x7473;	????	Illegal as 2-op instr
 47c:	65 72       	subc.b	#4,	r5	;r2 As==10
 47e:	2f 6c       	addc	@r12,	r15	
 480:	69 62       	addc.b	#4,	r9	;r2 As==10
 482:	73 65       	.word	0x6573;	????	Illegal as 2-op instr
 484:	72 69       	addc.b	@r9+,	r2	
 486:	61 6c       	addc.b	@r12,	r1	
 488:	2f 73       	subc	#2,	r15	;r3 As==10
 48a:	72 63       	addc.b	#-1,	r2	;r3 As==11
 48c:	00 73       	sbc	r0		
 48e:	69 7a       	subc.b	@r10,	r9	
 490:	65 5f       	add.b	@r15,	r5	
 492:	74 00       	.word	0x0074;	????	
 494:	64 73       	subc.b	#2,	r4	;r3 As==10
 496:	74 30       	jn	$+234    	;abs 0x580
 498:	00 75       	subc	r5,	r0	
 49a:	5f 63       	addc.b	#1,	r15	;r3 As==01
 49c:	68 61       	addc.b	@r1,	r8	
 49e:	72 00       	.word	0x0072;	????	
 4a0:	6d 65       	addc.b	@r5,	r13	
 4a2:	6d 73       	subc.b	#2,	r13	;r3 As==10
 4a4:	65 74       	subc.b	@r4,	r5	
 4a6:	00 2e       	jc	$-1022   	;abs 0xa8
 4a8:	2f 73       	subc	#2,	r15	;r3 As==10
 4aa:	74 72       	subc.b	#8,	r4	;r2 As==11
 4ac:	69 6e       	addc.b	@r14,	r9	
 4ae:	67 2f       	jc	$-304    	;abs 0x37e
 4b0:	6d 65       	addc.b	@r5,	r13	
 4b2:	6d 73       	subc.b	#2,	r13	;r3 As==10
 4b4:	65 74       	subc.b	@r4,	r5	
 4b6:	2e 63       	addc	#2,	r14	;r3 As==10
 4b8:	00 75       	subc	r5,	r0	
 4ba:	5f 69 6e 74 	addc.b	29806(r9),r15	;0x746e(r9)
 4be:	00 6c       	addc	r12,	r0	
 4c0:	65 6e       	addc.b	@r14,	r5	
 4c2:	67 74       	subc.b	@r4,	r7	
 4c4:	68 00       	.word	0x0068;	????	
 4c6:	2f 68       	addc	@r8,	r15	
 4c8:	6f 6d       	addc.b	@r13,	r15	
 4ca:	65 2f       	jc	$-308    	;abs 0x396
 4cc:	72 6f       	addc.b	@r15+,	r2	
 4ce:	62 65       	addc.b	@r5,	r2	
 4d0:	72 74       	subc.b	@r4+,	r2	
 4d2:	69 6e       	addc.b	@r14,	r9	
 4d4:	61 6e       	addc.b	@r14,	r1	
 4d6:	74 2f       	jc	$-278    	;abs 0x3c0
 4d8:	6d 73       	subc.b	#2,	r13	;r3 As==10
 4da:	70 67       	addc.b	@r7+,	r0	
 4dc:	63 63       	.word	0x6363;	????	Illegal as 2-op instr
 4de:	2f 6d       	addc	@r13,	r15	
 4e0:	73 70       	.word	0x7073;	????	Illegal as 2-op instr
 4e2:	34 33       	jn	$-406    	;abs 0x34c
 4e4:	30 2d       	jc	$+610    	;abs 0x746
 4e6:	6c 69       	addc.b	@r9,	r12	
 4e8:	62 63       	addc.b	#2,	r2	;r3 As==10
 4ea:	2d 32       	jn	$-932    	;abs 0x146
 4ec:	30 31       	jn	$+610    	;abs 0x74e
 4ee:	32 30       	jn	$+102    	;abs 0x554
 4f0:	32 32       	jn	$-922    	;abs 0x156
 4f2:	34 2f       	jc	$-406    	;abs 0x35c
 4f4:	73 72       	.word	0x7273;	????	Illegal as 2-op instr
 4f6:	63 00       	.word	0x0063;	????	

Disassembly of section .debug_loc:

00000000 <.debug_loc>:
   0:	ac c1 ae c1 	bic	@r1,	-15954(r12);0xc1ae(r12)
   4:	02 00       	.word	0x0002;	????	
   6:	71 02       	.word	0x0271;	????	
   8:	ae c1 da c1 	bic	@r1,	-15910(r14);0xc1da(r14)
   c:	02 00       	.word	0x0002;	????	
   e:	71 06       	.word	0x0671;	????	
  10:	da c1 dc c1 	bic.b	-15908(r1),2(r10)	;0xc1dc(r1), 0x0002(r10)
  14:	02 00 
  16:	71 08       	.word	0x0871;	????	
  18:	dc c1 e0 c1 	bic.b	-15904(r1),2(r12)	;0xc1e0(r1), 0x0002(r12)
  1c:	02 00 
  1e:	71 0a       	.word	0x0a71;	????	
  20:	e0 c1 e8 c1 	bic.b	@r1,	-15896(r0);PC rel. 0xc20a
  24:	02 00       	.word	0x0002;	????	
  26:	71 0c       	.word	0x0c71;	????	
  28:	e8 c1 fe c1 	bic.b	@r1,	-15874(r8);0xc1fe(r8)
  2c:	02 00       	.word	0x0002;	????	
  2e:	71 06       	.word	0x0671;	????	
  30:	00 00       	.word	0x0000;	????	
  32:	00 00       	.word	0x0000;	????	
  34:	fe c1 00 c2 	bic.b	@r1+,	-15872(r14);0xc200(r14)
  38:	02 00       	.word	0x0002;	????	
  3a:	71 02       	.word	0x0271;	????	
  3c:	00 c2       	bic	r2,	r0	
  3e:	24 c2       	bic	#4,	r4	;r2 As==10
  40:	02 00       	.word	0x0002;	????	
  42:	71 06       	.word	0x0671;	????	
  44:	24 c2       	bic	#4,	r4	;r2 As==10
  46:	28 c2       	bic	#4,	r8	;r2 As==10
  48:	02 00       	.word	0x0002;	????	
  4a:	71 08       	.word	0x0871;	????	
  4c:	28 c2       	bic	#4,	r8	;r2 As==10
  4e:	2e c2       	bic	#4,	r14	;r2 As==10
  50:	02 00       	.word	0x0002;	????	
  52:	71 0a       	.word	0x0a71;	????	
  54:	2e c2       	bic	#4,	r14	;r2 As==10
  56:	46 c2       	bic.b	r2,	r6	
  58:	02 00       	.word	0x0002;	????	
  5a:	71 06       	.word	0x0671;	????	
  5c:	00 00       	.word	0x0000;	????	
  5e:	00 00       	.word	0x0000;	????	
  60:	46 c2       	bic.b	r2,	r6	
  62:	48 c2       	bic.b	r2,	r8	
  64:	02 00       	.word	0x0002;	????	
  66:	71 02       	.word	0x0271;	????	
  68:	48 c2       	bic.b	r2,	r8	
  6a:	5a c2 02 00 	bic.b	&0x0002,r10	
  6e:	71 04       	.word	0x0471;	????	
  70:	00 00       	.word	0x0000;	????	
  72:	00 00       	.word	0x0000;	????	
  74:	5a c2 5c c2 	bic.b	&0xc25c,r10	
  78:	02 00       	.word	0x0002;	????	
  7a:	71 02       	.word	0x0271;	????	
  7c:	5c c2 6e c2 	bic.b	&0xc26e,r12	
  80:	02 00       	.word	0x0002;	????	
  82:	71 04       	.word	0x0471;	????	
  84:	00 00       	.word	0x0000;	????	
  86:	00 00       	.word	0x0000;	????	
  88:	3e c0 42 c0 	bic	#-16318,r14	;#0xc042
  8c:	02 00       	.word	0x0002;	????	
  8e:	71 00       	.word	0x0071;	????	
  90:	42 c0       	bic.b	r0,	r2	
  92:	a2 c1 03 00 	bic	@r1,	&0x0003	
  96:	71 de       	bis.b	@r14+,	r1	
  98:	00 00       	.word	0x0000;	????	
  9a:	00 00       	.word	0x0000;	????	
  9c:	00 6e       	addc	r14,	r0	
  9e:	c2 70 c2 02 	subc.b	r0,	&0x02c2	
  a2:	00 71       	subc	r1,	r0	
  a4:	00 70       	subc	r0,	r0	
  a6:	c2 c8 c3 02 	bic.b	r8,	&0x02c3	
  aa:	00 71       	subc	r1,	r0	
  ac:	02 00       	.word	0x0002;	????	
  ae:	00 00       	.word	0x0000;	????	
  b0:	00 00       	.word	0x0000;	????	
  b2:	00 04       	.word	0x0400;	????	
  b4:	00 01       	.word	0x0100;	????	
  b6:	00 5f       	add	r15,	r0	
  b8:	04 00       	.word	0x0004;	????	
  ba:	18 00       	.word	0x0018;	????	
  bc:	01 00       	.word	0x0001;	????	
  be:	5e 00       	.word	0x005e;	????	
  c0:	00 00       	.word	0x0000;	????	
  c2:	00 02       	.word	0x0200;	????	
  c4:	00 06       	.word	0x0600;	????	
  c6:	00 02       	.word	0x0200;	????	
  c8:	00 30       	jn	$+2      	;abs 0xca
  ca:	9f 06       	.word	0x069f;	????	
  cc:	00 08       	.word	0x0800;	????	
  ce:	00 01       	.word	0x0100;	????	
  d0:	00 5c       	add	r12,	r0	
  d2:	08 00       	.word	0x0008;	????	
  d4:	0c 00       	.word	0x000c;	????	
  d6:	01 00       	.word	0x0001;	????	
  d8:	5f 0c       	.word	0x0c5f;	????	
  da:	00 18       	.word	0x1800;	????	
  dc:	00 01       	.word	0x0100;	????	
  de:	00 5c       	add	r12,	r0	
  e0:	00 00       	.word	0x0000;	????	
  e2:	00 00       	.word	0x0000;	????	
  e4:	18 00       	.word	0x0018;	????	
  e6:	1a 00       	.word	0x001a;	????	
  e8:	02 00       	.word	0x0002;	????	
  ea:	71 02       	.word	0x0271;	????	
  ec:	1a 00       	.word	0x001a;	????	
  ee:	1c 00       	.word	0x001c;	????	
  f0:	02 00       	.word	0x0002;	????	
  f2:	71 04       	.word	0x0471;	????	
  f4:	1c 00       	.word	0x001c;	????	
  f6:	1e 00       	.word	0x001e;	????	
  f8:	02 00       	.word	0x0002;	????	
  fa:	71 06       	.word	0x0671;	????	
  fc:	1e 00       	.word	0x001e;	????	
  fe:	5c 00       	.word	0x005c;	????	
 100:	02 00       	.word	0x0002;	????	
 102:	71 08       	.word	0x0871;	????	
 104:	00 00       	.word	0x0000;	????	
 106:	00 00       	.word	0x0000;	????	
 108:	18 00       	.word	0x0018;	????	
 10a:	4c 00       	.word	0x004c;	????	
 10c:	01 00       	.word	0x0001;	????	
 10e:	5f 4e 00 50 	mov.b	20480(r14),r15	;0x5000(r14)
 112:	00 01       	.word	0x0100;	????	
 114:	00 5f       	add	r15,	r0	
 116:	52 00       	.word	0x0052;	????	
 118:	54 00       	.word	0x0054;	????	
 11a:	01 00       	.word	0x0001;	????	
 11c:	5f 00       	.word	0x005f;	????	
 11e:	00 00       	.word	0x0000;	????	
 120:	00 26       	jz	$-1022   	;abs 0xfd22
 122:	00 40       	br	r0		
 124:	00 01       	.word	0x0100;	????	
 126:	00 5b       	add	r11,	r0	
 128:	00 00       	.word	0x0000;	????	
 12a:	00 00       	.word	0x0000;	????	
 12c:	5c 00       	.word	0x005c;	????	
 12e:	60 00       	.word	0x0060;	????	
 130:	01 00       	.word	0x0001;	????	
 132:	5f 00       	.word	0x005f;	????	
 134:	00 00       	.word	0x0000;	????	
 136:	00 5c       	add	r12,	r0	
 138:	00 60       	rlc	r0		
 13a:	00 02       	.word	0x0200;	????	
 13c:	00 30       	jn	$+2      	;abs 0x13e
 13e:	9f 60 00 70 	addc	28672(r0),256(r15);PC rel. 0x7140, 0x0100(r15)
 142:	00 01 
 144:	00 5d       	add	r13,	r0	
 146:	82 00       	.word	0x0082;	????	
 148:	8c 00       	.word	0x008c;	????	
 14a:	01 00       	.word	0x0001;	????	
 14c:	5d 00       	.word	0x005d;	????	
 14e:	00 00       	.word	0x0000;	????	
 150:	00 5c       	add	r12,	r0	
 152:	00 60       	rlc	r0		
 154:	00 02       	.word	0x0200;	????	
 156:	00 30       	jn	$+2      	;abs 0x158
 158:	9f 00       	.word	0x009f;	????	
 15a:	00 00       	.word	0x0000;	????	
 15c:	00 60       	rlc	r0		
 15e:	00 82       	sub	r2,	r0	
 160:	00 01       	.word	0x0100;	????	
 162:	00 5c       	add	r12,	r0	
 164:	84 00       	.word	0x0084;	????	
 166:	88 00       	.word	0x0088;	????	
 168:	02 00       	.word	0x0002;	????	
 16a:	7f 00       	.word	0x007f;	????	
 16c:	88 00       	.word	0x0088;	????	
 16e:	8c 00       	.word	0x008c;	????	
 170:	01 00       	.word	0x0001;	????	
 172:	5c 00       	.word	0x005c;	????	
 174:	00 00       	.word	0x0000;	????	
 176:	00 8c       	sub	r12,	r0	
 178:	00 8e       	sub	r14,	r0	
 17a:	00 02       	.word	0x0200;	????	
 17c:	00 71       	subc	r1,	r0	
 17e:	02 8e       	sub	r14,	r2	
 180:	00 90       	cmp	r0,	r0	
 182:	00 02       	.word	0x0200;	????	
 184:	00 71       	subc	r1,	r0	
 186:	04 90       	cmp	r0,	r4	
 188:	00 92       	cmp	r2,	r0	
 18a:	00 02       	.word	0x0200;	????	
 18c:	00 71       	subc	r1,	r0	
 18e:	06 92       	cmp	r2,	r6	
 190:	00 94       	cmp	r4,	r0	
 192:	00 02       	.word	0x0200;	????	
 194:	00 71       	subc	r1,	r0	
 196:	08 94       	cmp	r4,	r8	
 198:	00 96       	cmp	r6,	r0	
 19a:	00 02       	.word	0x0200;	????	
 19c:	00 71       	subc	r1,	r0	
 19e:	0a 96       	cmp	r6,	r10	
 1a0:	00 98       	cmp	r8,	r0	
 1a2:	00 02       	.word	0x0200;	????	
 1a4:	00 71       	subc	r1,	r0	
 1a6:	0c 98       	cmp	r8,	r12	
 1a8:	00 9a       	cmp	r10,	r0	
 1aa:	00 02       	.word	0x0200;	????	
 1ac:	00 71       	subc	r1,	r0	
 1ae:	0e 9a       	cmp	r10,	r14	
 1b0:	00 32       	jn	$-1022   	;abs 0xfdb2
 1b2:	01 02       	.word	0x0201;	????	
 1b4:	00 71       	subc	r1,	r0	
 1b6:	10 00       	.word	0x0010;	????	
 1b8:	00 00       	.word	0x0000;	????	
 1ba:	00 8c       	sub	r12,	r0	
 1bc:	00 1a       	.word	0x1a00;	????	
 1be:	01 01       	.word	0x0101;	????	
 1c0:	00 5f       	add	r15,	r0	
 1c2:	1c 01       	.word	0x011c;	????	
 1c4:	1e 01       	.word	0x011e;	????	
 1c6:	01 00       	.word	0x0001;	????	
 1c8:	5f 20       	jnz	$+192    	;abs 0x288
 1ca:	01 22       	jnz	$-1020   	;abs 0xfdce
 1cc:	01 01       	.word	0x0101;	????	
 1ce:	00 5f       	add	r15,	r0	
 1d0:	00 00       	.word	0x0000;	????	
 1d2:	00 00       	.word	0x0000;	????	
 1d4:	9a 00       	.word	0x009a;	????	
 1d6:	a6 00       	.word	0x00a6;	????	
 1d8:	02 00       	.word	0x0002;	????	
 1da:	30 9f       	cmp	@r15+,	r0	
 1dc:	a6 00       	.word	0x00a6;	????	
 1de:	30 01       	.word	0x0130;	????	
 1e0:	01 00       	.word	0x0001;	????	
 1e2:	5b 00       	.word	0x005b;	????	
 1e4:	00 00       	.word	0x0000;	????	
 1e6:	00 da       	bis	r10,	r0	
 1e8:	00 0c       	.word	0x0c00;	????	
 1ea:	01 01       	.word	0x0101;	????	
 1ec:	00 59       	add	r9,	r0	
 1ee:	00 00       	.word	0x0000;	????	
 1f0:	00 00       	.word	0x0000;	????	
 1f2:	9a 00       	.word	0x009a;	????	
 1f4:	a6 00       	.word	0x00a6;	????	
 1f6:	02 00       	.word	0x0002;	????	
 1f8:	30 9f       	cmp	@r15+,	r0	
 1fa:	a6 00       	.word	0x00a6;	????	
 1fc:	da 00       	.word	0x00da;	????	
 1fe:	01 00       	.word	0x0001;	????	
 200:	5c 0e       	.word	0x0e5c;	????	
 202:	01 32       	jn	$-1020   	;abs 0xfe06
 204:	01 01       	.word	0x0101;	????	
 206:	00 5c       	add	r12,	r0	
 208:	00 00       	.word	0x0000;	????	
 20a:	00 00       	.word	0x0000;	????	
 20c:	9a 00       	.word	0x009a;	????	
 20e:	a6 00       	.word	0x00a6;	????	
 210:	02 00       	.word	0x0002;	????	
 212:	30 9f       	cmp	@r15+,	r0	
 214:	a6 00       	.word	0x00a6;	????	
 216:	2e 01       	.word	0x012e;	????	
 218:	01 00       	.word	0x0001;	????	
 21a:	5a 00       	.word	0x005a;	????	
 21c:	00 00       	.word	0x0000;	????	
 21e:	00 32       	jn	$-1022   	;abs 0xfe20
 220:	01 34       	jge	$+4      	;abs 0x224
 222:	01 02       	.word	0x0201;	????	
 224:	00 71       	subc	r1,	r0	
 226:	02 34       	jge	$+6      	;abs 0x22c
 228:	01 36       	jge	$-1020   	;abs 0xfe2c
 22a:	01 02       	.word	0x0201;	????	
 22c:	00 71       	subc	r1,	r0	
 22e:	04 36       	jge	$-1014   	;abs 0xfe38
 230:	01 38       	jl	$+4      	;abs 0x234
 232:	01 02       	.word	0x0201;	????	
 234:	00 71       	subc	r1,	r0	
 236:	06 38       	jl	$+14     	;abs 0x244
 238:	01 3a       	jl	$-1020   	;abs 0xfe3c
 23a:	01 02       	.word	0x0201;	????	
 23c:	00 71       	subc	r1,	r0	
 23e:	08 3a       	jl	$-1006   	;abs 0xfe50
 240:	01 3c       	jmp	$+4      	;abs 0x244
 242:	01 02       	.word	0x0201;	????	
 244:	00 71       	subc	r1,	r0	
 246:	0a 3c       	jmp	$+22     	;abs 0x25c
 248:	01 3e       	jmp	$-1020   	;abs 0xfe4c
 24a:	01 02       	.word	0x0201;	????	
 24c:	00 71       	subc	r1,	r0	
 24e:	0c 3e       	jmp	$-998    	;abs 0xfe68
 250:	01 42       	mov	r2,	r1	
 252:	01 02       	.word	0x0201;	????	
 254:	00 71       	subc	r1,	r0	
 256:	0e 42       	mov	r2,	r14	
 258:	01 c2       	bic	r2,	r1	
 25a:	01 03       	.word	0x0301;	????	
 25c:	00 71       	subc	r1,	r0	
 25e:	e0 00       	.word	0x00e0;	????	
 260:	00 00       	.word	0x0000;	????	
 262:	00 00       	.word	0x0000;	????	
 264:	32 01       	.word	0x0132;	????	
 266:	4c 01       	.word	0x014c;	????	
 268:	01 00       	.word	0x0001;	????	
 26a:	5f 4c 01 c0 	mov.b	-16383(r12),r15	;0xc001(r12)
 26e:	01 01       	.word	0x0101;	????	
 270:	00 5b       	add	r11,	r0	
 272:	00 00       	.word	0x0000;	????	
 274:	00 00       	.word	0x0000;	????	
 276:	32 01       	.word	0x0132;	????	
 278:	4c 01       	.word	0x014c;	????	
 27a:	01 00       	.word	0x0001;	????	
 27c:	5e 4c 01 ba 	mov.b	-17919(r12),r14	;0xba01(r12)
 280:	01 01       	.word	0x0101;	????	
 282:	00 58       	add	r8,	r0	
 284:	00 00       	.word	0x0000;	????	
 286:	00 00       	.word	0x0000;	????	
 288:	46 01       	.word	0x0146;	????	
 28a:	4c 01       	.word	0x014c;	????	
 28c:	02 00       	.word	0x0002;	????	
 28e:	30 9f       	cmp	@r15+,	r0	
 290:	4c 01       	.word	0x014c;	????	
 292:	be 01       	.word	0x01be;	????	
 294:	01 00       	.word	0x0001;	????	
 296:	5a 00       	.word	0x005a;	????	
 298:	00 00       	.word	0x0000;	????	
 29a:	00 7c       	subc	r12,	r0	
 29c:	01 94       	cmp	r4,	r1	
 29e:	01 01       	.word	0x0101;	????	
 2a0:	00 5f       	add	r15,	r0	
 2a2:	a6 01       	.word	0x01a6;	????	
 2a4:	aa 01       	.word	0x01aa;	????	
 2a6:	01 00       	.word	0x0001;	????	
 2a8:	5f ac 01 b0 	dadd.b	-20479(r12),r15	;0xb001(r12)
 2ac:	01 01       	.word	0x0101;	????	
 2ae:	00 5f       	add	r15,	r0	
 2b0:	00 00       	.word	0x0000;	????	
 2b2:	00 00       	.word	0x0000;	????	
 2b4:	5e 01       	.word	0x015e;	????	
 2b6:	66 01       	.word	0x0166;	????	
 2b8:	01 00       	.word	0x0001;	????	
 2ba:	5f 66 01 69 	addc.b	26881(r6),r15	;0x6901(r6)
 2be:	01 01       	.word	0x0101;	????	
 2c0:	00 5d       	add	r13,	r0	
 2c2:	00 00       	.word	0x0000;	????	
 2c4:	00 00       	.word	0x0000;	????	
 2c6:	54 01       	.word	0x0154;	????	
 2c8:	5a 01       	.word	0x015a;	????	
 2ca:	01 00       	.word	0x0001;	????	
 2cc:	5f 5a 01 9a 	add.b	-26111(r10),r15	;0x9a01(r10)
 2d0:	01 01       	.word	0x0101;	????	
 2d2:	00 57       	add	r7,	r0	
 2d4:	a6 01       	.word	0x01a6;	????	
 2d6:	b0 01       	.word	0x01b0;	????	
 2d8:	01 00       	.word	0x0001;	????	
 2da:	57 00       	.word	0x0057;	????	
 2dc:	00 00       	.word	0x0000;	????	
 2de:	00 00       	.word	0x0000;	????	
 2e0:	00 02       	.word	0x0200;	????	
 2e2:	00 02       	.word	0x0200;	????	
 2e4:	00 71       	subc	r1,	r0	
 2e6:	02 02       	.word	0x0202;	????	
 2e8:	00 04       	.word	0x0400;	????	
 2ea:	00 02       	.word	0x0200;	????	
 2ec:	00 71       	subc	r1,	r0	
 2ee:	04 04       	.word	0x0404;	????	
 2f0:	00 06       	.word	0x0600;	????	
 2f2:	00 02       	.word	0x0200;	????	
 2f4:	00 71       	subc	r1,	r0	
 2f6:	06 06       	.word	0x0606;	????	
 2f8:	00 08       	.word	0x0800;	????	
 2fa:	00 02       	.word	0x0200;	????	
 2fc:	00 71       	subc	r1,	r0	
 2fe:	08 08       	.word	0x0808;	????	
 300:	00 0a       	.word	0x0a00;	????	
 302:	00 02       	.word	0x0200;	????	
 304:	00 71       	subc	r1,	r0	
 306:	0a 0a       	.word	0x0a0a;	????	
 308:	00 6a       	addc	r10,	r0	
 30a:	00 02       	.word	0x0200;	????	
 30c:	00 71       	subc	r1,	r0	
 30e:	0c 00       	.word	0x000c;	????	
 310:	00 00       	.word	0x0000;	????	
 312:	00 00       	.word	0x0000;	????	
 314:	00 14       	.word	0x1400;	????	
 316:	00 06       	.word	0x0600;	????	
 318:	00 5e       	add	r14,	r0	
 31a:	93 02       	.word	0x0293;	????	
 31c:	5f 93       	cmp.b	#1,	r15	;r3 As==01
 31e:	02 14       	.word	0x1402;	????	
 320:	00 66       	addc	r6,	r0	
 322:	00 06       	.word	0x0600;	????	
 324:	00 5a       	add	r10,	r0	
 326:	93 02       	.word	0x0293;	????	
 328:	5b 93       	cmp.b	#1,	r11	;r3 As==01
 32a:	02 00       	.word	0x0002;	????	
 32c:	00 00       	.word	0x0000;	????	
 32e:	00 00       	.word	0x0000;	????	
 330:	00 14       	.word	0x1400;	????	
 332:	00 01       	.word	0x0100;	????	
 334:	00 5d       	add	r13,	r0	
 336:	14 00       	.word	0x0014;	????	
 338:	60 00       	.word	0x0060;	????	
 33a:	01 00       	.word	0x0001;	????	
 33c:	57 00       	.word	0x0057;	????	
 33e:	00 00       	.word	0x0000;	????	
 340:	00 2c       	jc	$+2      	;abs 0x342
 342:	00 32       	jn	$-1022   	;abs 0xff44
 344:	00 03       	.word	0x0300;	????	
 346:	00 08       	.word	0x0800;	????	
 348:	30 9f       	cmp	@r15+,	r0	
 34a:	32 00       	.word	0x0032;	????	
 34c:	47 00       	.word	0x0047;	????	
 34e:	01 00       	.word	0x0001;	????	
 350:	5f 00       	.word	0x005f;	????	
 352:	00 00       	.word	0x0000;	????	
 354:	00 2c       	jc	$+2      	;abs 0x356
 356:	00 47       	br	r7		
 358:	00 02       	.word	0x0200;	????	
 35a:	00 77       	subc	r7,	r0	
 35c:	7c 47       	mov.b	@r7+,	r12	
 35e:	00 4c       	br	r12		
 360:	00 06       	.word	0x0600;	????	
 362:	00 58       	add	r8,	r0	
 364:	93 02       	.word	0x0293;	????	
 366:	59 93       	cmp.b	#1,	r9	;r3 As==01
 368:	02 00       	.word	0x0002;	????	
 36a:	00 00       	.word	0x0000;	????	
 36c:	00 6a       	addc	r10,	r0	
 36e:	00 6e       	addc	r14,	r0	
 370:	00 01       	.word	0x0100;	????	
 372:	00 5f       	add	r15,	r0	
 374:	00 00       	.word	0x0000;	????	
 376:	00 00       	.word	0x0000;	????	
 378:	78 00       	.word	0x0078;	????	
 37a:	7a 00       	.word	0x007a;	????	
 37c:	02 00       	.word	0x0002;	????	
 37e:	71 02       	.word	0x0271;	????	
 380:	7a 00       	.word	0x007a;	????	
 382:	8c 00       	.word	0x008c;	????	
 384:	02 00       	.word	0x0002;	????	
 386:	71 04       	.word	0x0471;	????	
 388:	00 00       	.word	0x0000;	????	
 38a:	00 00       	.word	0x0000;	????	
 38c:	78 00       	.word	0x0078;	????	
 38e:	7e 00       	.word	0x007e;	????	
 390:	01 00       	.word	0x0001;	????	
 392:	5f 00       	.word	0x005f;	????	
 394:	00 00       	.word	0x0000;	????	
 396:	00 7c       	subc	r12,	r0	
 398:	00 7e       	subc	r14,	r0	
 39a:	00 02       	.word	0x0200;	????	
 39c:	00 30       	jn	$+2      	;abs 0x39e
 39e:	9f 00       	.word	0x009f;	????	
 3a0:	00 00       	.word	0x0000;	????	
 3a2:	00 8c       	sub	r12,	r0	
 3a4:	00 8e       	sub	r14,	r0	
 3a6:	00 02       	.word	0x0200;	????	
 3a8:	00 71       	subc	r1,	r0	
 3aa:	02 8e       	sub	r14,	r2	
 3ac:	00 90       	cmp	r0,	r0	
 3ae:	00 02       	.word	0x0200;	????	
 3b0:	00 71       	subc	r1,	r0	
 3b2:	04 90       	cmp	r0,	r4	
 3b4:	00 92       	cmp	r2,	r0	
 3b6:	00 02       	.word	0x0200;	????	
 3b8:	00 71       	subc	r1,	r0	
 3ba:	06 92       	cmp	r2,	r6	
 3bc:	00 96       	cmp	r6,	r0	
 3be:	00 02       	.word	0x0200;	????	
 3c0:	00 71       	subc	r1,	r0	
 3c2:	08 96       	cmp	r6,	r8	
 3c4:	00 06       	.word	0x0600;	????	
 3c6:	01 02       	.word	0x0201;	????	
 3c8:	00 71       	subc	r1,	r0	
 3ca:	28 00       	.word	0x0028;	????	
 3cc:	00 00       	.word	0x0000;	????	
 3ce:	00 8c       	sub	r12,	r0	
 3d0:	00 9c       	cmp	r12,	r0	
 3d2:	00 01       	.word	0x0100;	????	
 3d4:	00 5f       	add	r15,	r0	
 3d6:	9c 00       	.word	0x009c;	????	
 3d8:	d0 00       	.word	0x00d0;	????	
 3da:	01 00       	.word	0x0001;	????	
 3dc:	5b d0 00 d8 	bis.b	-10240(r0),r11	;PC rel. 0xdbde
 3e0:	00 01       	.word	0x0100;	????	
 3e2:	00 5f       	add	r15,	r0	
 3e4:	d8 00       	.word	0x00d8;	????	
 3e6:	e0 00       	.word	0x00e0;	????	
 3e8:	01 00       	.word	0x0001;	????	
 3ea:	5b e0 00 e2 	xor.b	-7680(r0),r11	;PC rel. 0xe5ec
 3ee:	00 01       	.word	0x0100;	????	
 3f0:	00 5f       	add	r15,	r0	
 3f2:	00 00       	.word	0x0000;	????	
 3f4:	00 00       	.word	0x0000;	????	
 3f6:	d2 00       	.word	0x00d2;	????	
 3f8:	d8 00       	.word	0x00d8;	????	
 3fa:	01 00       	.word	0x0001;	????	
 3fc:	5a 00       	.word	0x005a;	????	
 3fe:	00 00       	.word	0x0000;	????	
 400:	00 dc       	bis	r12,	r0	
 402:	00 e2       	xor	r2,	r0	
 404:	00 03       	.word	0x0300;	????	
 406:	00 7a       	subc	r10,	r0	
 408:	01 9f       	cmp	r15,	r1	
 40a:	00 00       	.word	0x0000;	????	
 40c:	00 00       	.word	0x0000;	????	
 40e:	06 01       	.word	0x0106;	????	
 410:	08 01       	.word	0x0108;	????	
 412:	02 00       	.word	0x0002;	????	
 414:	71 02       	.word	0x0271;	????	
 416:	08 01       	.word	0x0108;	????	
 418:	0a 01       	.word	0x010a;	????	
 41a:	02 00       	.word	0x0002;	????	
 41c:	71 04       	.word	0x0471;	????	
 41e:	0a 01       	.word	0x010a;	????	
 420:	40 01       	.word	0x0140;	????	
 422:	02 00       	.word	0x0002;	????	
 424:	71 06       	.word	0x0671;	????	
 426:	00 00       	.word	0x0000;	????	
 428:	00 00       	.word	0x0000;	????	
 42a:	06 01       	.word	0x0106;	????	
 42c:	10 01       	.word	0x0110;	????	
 42e:	01 00       	.word	0x0001;	????	
 430:	5f 10 01 3c 	rrc.b	15361(r15)	;0x3c01(r15)
 434:	01 01       	.word	0x0101;	????	
 436:	00 5a       	add	r10,	r0	
 438:	00 00       	.word	0x0000;	????	
 43a:	00 00       	.word	0x0000;	????	
 43c:	06 01       	.word	0x0106;	????	
 43e:	10 01       	.word	0x0110;	????	
 440:	01 00       	.word	0x0001;	????	
 442:	5e 00       	.word	0x005e;	????	
 444:	00 00       	.word	0x0000;	????	
 446:	00 10       	rrc	r0		
 448:	01 34       	jge	$+4      	;abs 0x44c
 44a:	01 01       	.word	0x0101;	????	
 44c:	00 5b       	add	r11,	r0	
 44e:	36 01       	.word	0x0136;	????	
 450:	3e 01       	.word	0x013e;	????	
 452:	01 00       	.word	0x0001;	????	
 454:	5b 00       	.word	0x005b;	????	
 456:	00 00       	.word	0x0000;	????	
 458:	00 40       	br	r0		
 45a:	01 42       	mov	r2,	r1	
 45c:	01 02       	.word	0x0201;	????	
 45e:	00 71       	subc	r1,	r0	
 460:	02 42       	mov	r2,	r2	
 462:	01 44       	mov	r4,	r1	
 464:	01 02       	.word	0x0201;	????	
 466:	00 71       	subc	r1,	r0	
 468:	04 44       	mov	r4,	r4	
 46a:	01 46       	mov	r6,	r1	
 46c:	01 02       	.word	0x0201;	????	
 46e:	00 71       	subc	r1,	r0	
 470:	06 46       	mov	r6,	r6	
 472:	01 48       	mov	r8,	r1	
 474:	01 02       	.word	0x0201;	????	
 476:	00 71       	subc	r1,	r0	
 478:	08 48       	mov	r8,	r8	
 47a:	01 6a       	addc	r10,	r1	
 47c:	02 02       	.word	0x0202;	????	
 47e:	00 71       	subc	r1,	r0	
 480:	0a 00       	.word	0x000a;	????	
 482:	00 00       	.word	0x0000;	????	
 484:	00 40       	br	r0		
 486:	01 52       	add	r2,	r1	
 488:	01 02       	.word	0x0201;	????	
 48a:	00 91       	cmp	r1,	r0	
 48c:	00 52       	add	r2,	r0	
 48e:	01 5e       	add	r14,	r1	
 490:	01 03       	.word	0x0301;	????	
 492:	00 7a       	subc	r10,	r0	
 494:	01 9f       	cmp	r15,	r1	
 496:	5e 01       	.word	0x015e;	????	
 498:	54 02       	.word	0x0254;	????	
 49a:	01 00       	.word	0x0001;	????	
 49c:	5a 54 02 56 	add.b	22018(r4),r10	;0x5602(r4)
 4a0:	02 03       	.word	0x0302;	????	
 4a2:	00 7a       	subc	r10,	r0	
 4a4:	01 9f       	cmp	r15,	r1	
 4a6:	56 02       	.word	0x0256;	????	
 4a8:	5c 02       	.word	0x025c;	????	
 4aa:	01 00       	.word	0x0001;	????	
 4ac:	5a 5c 02 60 	add.b	24578(r12),r10	;0x6002(r12)
 4b0:	02 03       	.word	0x0302;	????	
 4b2:	00 7a       	subc	r10,	r0	
 4b4:	01 9f       	cmp	r15,	r1	
 4b6:	00 00       	.word	0x0000;	????	
 4b8:	00 00       	.word	0x0000;	????	
 4ba:	52 01       	.word	0x0152;	????	
 4bc:	5c 01       	.word	0x015c;	????	
 4be:	01 00       	.word	0x0001;	????	
 4c0:	5f 5c 01 5e 	add.b	24065(r12),r15	;0x5e01(r12)
 4c4:	01 02       	.word	0x0201;	????	
 4c6:	00 7a       	subc	r10,	r0	
 4c8:	01 5e       	add	r14,	r1	
 4ca:	01 a5       	dadd	r5,	r1	
 4cc:	01 02       	.word	0x0201;	????	
 4ce:	00 7a       	subc	r10,	r0	
 4d0:	7f a8       	dadd.b	@r8+,	r15	
 4d2:	01 ae       	dadd	r14,	r1	
 4d4:	01 01       	.word	0x0101;	????	
 4d6:	00 5f       	add	r15,	r0	
 4d8:	ae 01       	.word	0x01ae;	????	
 4da:	b1 01       	.word	0x01b1;	????	
 4dc:	02 00       	.word	0x0002;	????	
 4de:	7a 7f       	subc.b	@r15+,	r10	
 4e0:	b6 01       	.word	0x01b6;	????	
 4e2:	ce 01       	.word	0x01ce;	????	
 4e4:	01 00       	.word	0x0001;	????	
 4e6:	5f ce 01 d1 	bic.b	-12031(r14),r15	;0xd101(r14)
 4ea:	01 02       	.word	0x0201;	????	
 4ec:	00 7a       	subc	r10,	r0	
 4ee:	7f e0 01 08 	xor.b	#2049,	r15	;#0x0801
 4f2:	02 01       	.word	0x0102;	????	
 4f4:	00 5f       	add	r15,	r0	
 4f6:	08 02       	.word	0x0208;	????	
 4f8:	0b 02       	.word	0x020b;	????	
 4fa:	02 00       	.word	0x0002;	????	
 4fc:	7a 7f       	subc.b	@r15+,	r10	
 4fe:	1c 02       	.word	0x021c;	????	
 500:	24 02       	.word	0x0224;	????	
 502:	01 00       	.word	0x0001;	????	
 504:	5f 24       	jz	$+192    	;abs 0x5c4
 506:	02 33       	jn	$-506    	;abs 0x30c
 508:	02 02       	.word	0x0202;	????	
 50a:	00 7a       	subc	r10,	r0	
 50c:	7f 54       	add.b	@r4+,	r15	
 50e:	02 59       	add	r9,	r2	
 510:	02 01       	.word	0x0102;	????	
 512:	00 5f       	add	r15,	r0	
 514:	5c 02       	.word	0x025c;	????	
 516:	60 02       	.word	0x0260;	????	
 518:	02 00       	.word	0x0002;	????	
 51a:	7a 00       	.word	0x007a;	????	
 51c:	60 02       	.word	0x0260;	????	
 51e:	6a 02       	.word	0x026a;	????	
 520:	01 00       	.word	0x0001;	????	
 522:	5f 00       	.word	0x005f;	????	
 524:	00 00       	.word	0x0000;	????	
 526:	00 bc       	bit	r12,	r0	
 528:	01 ca       	bic	r10,	r1	
 52a:	01 02       	.word	0x0201;	????	
 52c:	00 79       	subc	r9,	r0	
 52e:	7e ca       	bic.b	@r10+,	r14	
 530:	01 e0       	xor	r0,	r1	
 532:	01 01       	.word	0x0101;	????	
 534:	00 5b       	add	r11,	r0	
 536:	22 02       	.word	0x0222;	????	
 538:	33 02       	.word	0x0233;	????	
 53a:	02 00       	.word	0x0002;	????	
 53c:	79 7e       	subc.b	@r14+,	r9	
 53e:	33 02       	.word	0x0233;	????	
 540:	54 02       	.word	0x0254;	????	
 542:	01 00       	.word	0x0001;	????	
 544:	5b 00       	.word	0x005b;	????	
 546:	00 00       	.word	0x0000;	????	
 548:	00 ea       	xor	r10,	r0	
 54a:	01 04       	.word	0x0401;	????	
 54c:	02 08       	.word	0x0802;	????	
 54e:	00 78       	subc	r8,	r0	
 550:	7c 93       	cmp.b	#-1,	r12	;r3 As==11
 552:	02 78       	subc	r8,	r2	
 554:	7e 93       	cmp.b	#-1,	r14	;r3 As==11
 556:	02 04       	.word	0x0402;	????	
 558:	02 0b       	.word	0x0b02;	????	
 55a:	02 07       	.word	0x0702;	????	
 55c:	00 5c       	add	r12,	r0	
 55e:	93 02       	.word	0x0293;	????	
 560:	78 7e       	subc.b	@r14+,	r8	
 562:	93 02       	.word	0x0293;	????	
 564:	0b 02       	.word	0x020b;	????	
 566:	1a 02       	.word	0x021a;	????	
 568:	06 00       	.word	0x0006;	????	
 56a:	59 93       	cmp.b	#1,	r9	;r3 As==01
 56c:	02 5b       	add	r11,	r2	
 56e:	93 02       	.word	0x0293;	????	
 570:	00 00       	.word	0x0000;	????	
 572:	00 00       	.word	0x0000;	????	
 574:	50 01       	.word	0x0150;	????	
 576:	a0 01       	.word	0x01a0;	????	
 578:	01 00       	.word	0x0001;	????	
 57a:	5b a0 01 a8 	dadd.b	-22527(r0),r11	;PC rel. 0xad7d
 57e:	01 01       	.word	0x0101;	????	
 580:	00 59       	add	r9,	r0	
 582:	a8 01       	.word	0x01a8;	????	
 584:	ac 01       	.word	0x01ac;	????	
 586:	01 00       	.word	0x0001;	????	
 588:	5b ac 01 b6 	dadd.b	-18943(r12),r11	;0xb601(r12)
 58c:	01 01       	.word	0x0101;	????	
 58e:	00 59       	add	r9,	r0	
 590:	b6 01       	.word	0x01b6;	????	
 592:	ba 01       	.word	0x01ba;	????	
 594:	01 00       	.word	0x0001;	????	
 596:	5b ba 01 e0 	bit.b	-8191(r10),r11	;0xe001(r10)
 59a:	01 01       	.word	0x0101;	????	
 59c:	00 59       	add	r9,	r0	
 59e:	e0 01       	.word	0x01e0;	????	
 5a0:	e4 01       	.word	0x01e4;	????	
 5a2:	01 00       	.word	0x0001;	????	
 5a4:	5b e4 01 1c 	xor.b	7169(r4),r11	;0x1c01(r4)
 5a8:	02 01       	.word	0x0102;	????	
 5aa:	00 58       	add	r8,	r0	
 5ac:	1c 02       	.word	0x021c;	????	
 5ae:	20 02       	.word	0x0220;	????	
 5b0:	01 00       	.word	0x0001;	????	
 5b2:	5b 20       	jnz	$+184    	;abs 0x66a
 5b4:	02 54       	add	r4,	r2	
 5b6:	02 01       	.word	0x0102;	????	
 5b8:	00 59       	add	r9,	r0	
 5ba:	54 02       	.word	0x0254;	????	
 5bc:	68 02       	.word	0x0268;	????	
 5be:	01 00       	.word	0x0001;	????	
 5c0:	5b 00       	.word	0x005b;	????	
 5c2:	00 00       	.word	0x0000;	????	
 5c4:	00 00       	.word	0x0000;	????	
 5c6:	00 03       	.word	0x0300;	????	
 5c8:	00 01       	.word	0x0100;	????	
 5ca:	00 5f       	add	r15,	r0	
 5cc:	00 00       	.word	0x0000;	????	
 5ce:	00 00       	.word	0x0000;	????	
 5d0:	2a 01       	.word	0x012a;	????	
 5d2:	37 01       	.word	0x0137;	????	
 5d4:	01 00       	.word	0x0001;	????	
 5d6:	5f 00       	.word	0x005f;	????	
 5d8:	00 00       	.word	0x0000;	????	
 5da:	00 00       	.word	0x0000;	????	
 5dc:	00 02       	.word	0x0200;	????	
 5de:	00 02       	.word	0x0200;	????	
 5e0:	00 71       	subc	r1,	r0	
 5e2:	02 02       	.word	0x0202;	????	
 5e4:	00 04       	.word	0x0400;	????	
 5e6:	00 02       	.word	0x0200;	????	
 5e8:	00 71       	subc	r1,	r0	
 5ea:	04 04       	.word	0x0404;	????	
 5ec:	00 06       	.word	0x0600;	????	
 5ee:	00 02       	.word	0x0200;	????	
 5f0:	00 71       	subc	r1,	r0	
 5f2:	06 06       	.word	0x0606;	????	
 5f4:	00 08       	.word	0x0800;	????	
 5f6:	00 02       	.word	0x0200;	????	
 5f8:	00 71       	subc	r1,	r0	
 5fa:	08 08       	.word	0x0808;	????	
 5fc:	00 6a       	addc	r10,	r0	
 5fe:	00 02       	.word	0x0200;	????	
 600:	00 71       	subc	r1,	r0	
 602:	0a 00       	.word	0x000a;	????	
 604:	00 00       	.word	0x0000;	????	
 606:	00 00       	.word	0x0000;	????	
 608:	00 22       	jnz	$-1022   	;abs 0x20a
 60a:	00 01       	.word	0x0100;	????	
 60c:	00 5e       	add	r14,	r0	
 60e:	00 00       	.word	0x0000;	????	
 610:	00 00       	.word	0x0000;	????	
 612:	00 00       	.word	0x0000;	????	
 614:	5a 00       	.word	0x005a;	????	
 616:	01 00       	.word	0x0001;	????	
 618:	5d 00       	.word	0x005d;	????	
 61a:	00 00       	.word	0x0000;	????	
 61c:	00 2e       	jc	$-1022   	;abs 0x21e
 61e:	00 32       	jn	$-1022   	;abs 0x220
 620:	00 05       	.word	0x0500;	????	
 622:	00 7f       	subc	r15,	r0	
 624:	00 31       	jn	$+514    	;abs 0x826
 626:	1a 9f 32 00 	cmp	50(r15),r10	;0x0032(r15)
 62a:	3c 00       	.word	0x003c;	????	
 62c:	02 00       	.word	0x0002;	????	
 62e:	31 9f       	cmp	@r15+,	r1	
 630:	3c 00       	.word	0x003c;	????	
 632:	3e 00       	.word	0x003e;	????	
 634:	02 00       	.word	0x0002;	????	
 636:	30 9f       	cmp	@r15+,	r0	
 638:	3e 00       	.word	0x003e;	????	
 63a:	40 00       	.word	0x0040;	????	
 63c:	05 00       	.word	0x0005;	????	
 63e:	7f 00       	.word	0x007f;	????	
 640:	31 1a       	.word	0x1a31;	????	
 642:	9f 46 00 4a 	mov	18944(r6),256(r15);0x4a00(r6), 0x0100(r15)
 646:	00 01 
 648:	00 5c       	add	r12,	r0	
 64a:	4a 00       	.word	0x004a;	????	
 64c:	58 00       	.word	0x0058;	????	
 64e:	01 00       	.word	0x0001;	????	
 650:	58 58 00 5a 	add.b	23040(r8),r8	;0x5a00(r8)
 654:	00 05       	.word	0x0500;	????	
 656:	00 7d       	subc	r13,	r0	
 658:	00 31       	jn	$+514    	;abs 0x85a
 65a:	1a 9f 5a 00 	cmp	90(r15),r10	;0x005a(r15)
 65e:	5c 00       	.word	0x005c;	????	
 660:	01 00       	.word	0x0001;	????	
 662:	5d 5c 00 60 	add.b	24576(r12),r13	;0x6000(r12)
 666:	00 02       	.word	0x0200;	????	
 668:	00 31       	jn	$+514    	;abs 0x86a
 66a:	9f 00       	.word	0x009f;	????	
 66c:	00 00       	.word	0x0000;	????	
 66e:	00 24       	jz	$+2      	;abs 0x670
 670:	00 60       	rlc	r0		
 672:	00 01       	.word	0x0100;	????	
 674:	00 5b       	add	r11,	r0	
 676:	00 00       	.word	0x0000;	????	
 678:	00 00       	.word	0x0000;	????	
 67a:	08 00       	.word	0x0008;	????	
 67c:	12 00       	.word	0x0012;	????	
 67e:	01 00       	.word	0x0001;	????	
 680:	5f 12 00 20 	push.b	8192(r15)	;0x2000(r15)
 684:	00 01       	.word	0x0100;	????	
 686:	00 5c       	add	r12,	r0	
 688:	20 00       	.word	0x0020;	????	
 68a:	3c 00       	.word	0x003c;	????	
 68c:	01 00       	.word	0x0001;	????	
 68e:	5f 3c       	jmp	$+192    	;abs 0x74e
 690:	00 3e       	jmp	$-1022   	;abs 0x292
 692:	00 01       	.word	0x0100;	????	
 694:	00 59       	add	r9,	r0	
 696:	3e 00       	.word	0x003e;	????	
 698:	40 00       	.word	0x0040;	????	
 69a:	01 00       	.word	0x0001;	????	
 69c:	5f 40 00 4a 	mov.b	18944(r0),r15	;PC rel. 0x509e
 6a0:	00 01       	.word	0x0100;	????	
 6a2:	00 59       	add	r9,	r0	
 6a4:	4a 00       	.word	0x004a;	????	
 6a6:	5c 00       	.word	0x005c;	????	
 6a8:	01 00       	.word	0x0001;	????	
 6aa:	5a 5c 00 60 	add.b	24576(r12),r10	;0x6000(r12)
 6ae:	00 01       	.word	0x0100;	????	
 6b0:	00 5c       	add	r12,	r0	
 6b2:	00 00       	.word	0x0000;	????	
	...

Disassembly of section .debug_ranges:

00000000 <.debug_ranges>:
   0:	ac c1 d2 c3 	bic	@r1,	-15406(r12);0xc3d2(r12)
   4:	3e c0 a2 c1 	bic	#-15966,r14	;#0xc1a2
   8:	00 00       	.word	0x0000;	????	
	...
